ccopy_reg
_reconstructor
p1
(cmatplotlib.font_manager
FontManager
p2
c__builtin__
object
p3
NtRp4
(dp5
S'ttflist'
p6
(lp7
g1
(cmatplotlib.font_manager
FontEntry
p8
g3
NtRp9
(dp10
S'style'
p11
Vnormal
p12
sS'name'
p13
VBitstream Vera Serif
p14
sS'weight'
p15
I400
sS'stretch'
p16
g12
sS'variant'
p17
g12
sS'fname'
p18
V/Users/moritzberthold/anaconda2/lib/python2.7/site-packages/matplotlib/mpl-data/fonts/ttf/VeraSe.ttf
p19
sS'size'
p20
Vscalable
p21
sbag1
(g8
g3
NtRp22
(dp23
g11
g12
sg13
Vcmr10
p24
sg15
I400
sg16
g12
sg17
g12
sg18
V/Users/moritzberthold/anaconda2/lib/python2.7/site-packages/matplotlib/mpl-data/fonts/ttf/cmr10.ttf
p25
sg20
g21
sbag1
(g8
g3
NtRp26
(dp27
g11
g12
sg13
Vcmex10
p28
sg15
I400
sg16
g12
sg17
g12
sg18
V/Users/moritzberthold/anaconda2/lib/python2.7/site-packages/matplotlib/mpl-data/fonts/ttf/cmex10.ttf
p29
sg20
g21
sbag1
(g8
g3
NtRp30
(dp31
g11
g12
sg13
VSTIXGeneral
p32
sg15
I700
sg16
g12
sg17
g12
sg18
V/Users/moritzberthold/anaconda2/lib/python2.7/site-packages/matplotlib/mpl-data/fonts/ttf/STIXGeneralBol.ttf
p33
sg20
g21
sbag1
(g8
g3
NtRp34
(dp35
g11
g12
sg13
VSTIXSizeFourSym
p36
sg15
I400
sg16
g12
sg17
g12
sg18
V/Users/moritzberthold/anaconda2/lib/python2.7/site-packages/matplotlib/mpl-data/fonts/ttf/STIXSizFourSymReg.ttf
p37
sg20
g21
sbag1
(g8
g3
NtRp38
(dp39
g11
Vitalic
p40
sg13
VSTIXGeneral
p41
sg15
I700
sg16
g12
sg17
g12
sg18
V/Users/moritzberthold/anaconda2/lib/python2.7/site-packages/matplotlib/mpl-data/fonts/ttf/STIXGeneralBolIta.ttf
p42
sg20
g21
sbag1
(g8
g3
NtRp43
(dp44
g11
g12
sg13
VBitstream Vera Sans Mono
p45
sg15
I400
sg16
g12
sg17
g12
sg18
V/Users/moritzberthold/anaconda2/lib/python2.7/site-packages/matplotlib/mpl-data/fonts/ttf/VeraMono.ttf
p46
sg20
g21
sbag1
(g8
g3
NtRp47
(dp48
g11
g12
sg13
VSTIXSizeThreeSym
p49
sg15
I700
sg16
g12
sg17
g12
sg18
V/Users/moritzberthold/anaconda2/lib/python2.7/site-packages/matplotlib/mpl-data/fonts/ttf/STIXSizThreeSymBol.ttf
p50
sg20
g21
sbag1
(g8
g3
NtRp51
(dp52
g11
g12
sg13
Vcmb10
p53
sg15
I400
sg16
g12
sg17
g12
sg18
V/Users/moritzberthold/anaconda2/lib/python2.7/site-packages/matplotlib/mpl-data/fonts/ttf/cmb10.ttf
p54
sg20
g21
sbag1
(g8
g3
NtRp55
(dp56
g11
g12
sg13
Vcmsy10
p57
sg15
I400
sg16
g12
sg17
g12
sg18
V/Users/moritzberthold/anaconda2/lib/python2.7/site-packages/matplotlib/mpl-data/fonts/ttf/cmsy10.ttf
p58
sg20
g21
sbag1
(g8
g3
NtRp59
(dp60
g11
g40
sg13
VSTIXGeneral
p61
sg15
I400
sg16
g12
sg17
g12
sg18
V/Users/moritzberthold/anaconda2/lib/python2.7/site-packages/matplotlib/mpl-data/fonts/ttf/STIXGeneralItalic.ttf
p62
sg20
g21
sbag1
(g8
g3
NtRp63
(dp64
g11
g12
sg13
VSTIXSizeOneSym
p65
sg15
I700
sg16
g12
sg17
g12
sg18
V/Users/moritzberthold/anaconda2/lib/python2.7/site-packages/matplotlib/mpl-data/fonts/ttf/STIXSizOneSymBol.ttf
p66
sg20
g21
sbag1
(g8
g3
NtRp67
(dp68
g11
g12
sg13
VSTIXSizeOneSym
p69
sg15
I400
sg16
g12
sg17
g12
sg18
V/Users/moritzberthold/anaconda2/lib/python2.7/site-packages/matplotlib/mpl-data/fonts/ttf/STIXSizOneSymReg.ttf
p70
sg20
g21
sbag1
(g8
g3
NtRp71
(dp72
g11
g12
sg13
VSTIXSizeTwoSym
p73
sg15
I400
sg16
g12
sg17
g12
sg18
V/Users/moritzberthold/anaconda2/lib/python2.7/site-packages/matplotlib/mpl-data/fonts/ttf/STIXSizTwoSymReg.ttf
p74
sg20
g21
sbag1
(g8
g3
NtRp75
(dp76
g11
g12
sg13
VSTIXSizeFiveSym
p77
sg15
I400
sg16
g12
sg17
g12
sg18
V/Users/moritzberthold/anaconda2/lib/python2.7/site-packages/matplotlib/mpl-data/fonts/ttf/STIXSizFiveSymReg.ttf
p78
sg20
g21
sbag1
(g8
g3
NtRp79
(dp80
g11
g12
sg13
VSTIXSizeFourSym
p81
sg15
I700
sg16
g12
sg17
g12
sg18
V/Users/moritzberthold/anaconda2/lib/python2.7/site-packages/matplotlib/mpl-data/fonts/ttf/STIXSizFourSymBol.ttf
p82
sg20
g21
sbag1
(g8
g3
NtRp83
(dp84
g11
Voblique
p85
sg13
VBitstream Vera Sans
p86
sg15
I400
sg16
g12
sg17
g12
sg18
V/Users/moritzberthold/anaconda2/lib/python2.7/site-packages/matplotlib/mpl-data/fonts/ttf/VeraIt.ttf
p87
sg20
g21
sbag1
(g8
g3
NtRp88
(dp89
g11
g12
sg13
Vcmmi10
p90
sg15
I400
sg16
g12
sg17
g12
sg18
V/Users/moritzberthold/anaconda2/lib/python2.7/site-packages/matplotlib/mpl-data/fonts/ttf/cmmi10.ttf
p91
sg20
g21
sbag1
(g8
g3
NtRp92
(dp93
g11
g85
sg13
VBitstream Vera Sans Mono
p94
sg15
I700
sg16
g12
sg17
g12
sg18
V/Users/moritzberthold/anaconda2/lib/python2.7/site-packages/matplotlib/mpl-data/fonts/ttf/VeraMoBI.ttf
p95
sg20
g21
sbag1
(g8
g3
NtRp96
(dp97
g11
g12
sg13
VSTIXGeneral
p98
sg15
I400
sg16
g12
sg17
g12
sg18
V/Users/moritzberthold/anaconda2/lib/python2.7/site-packages/matplotlib/mpl-data/fonts/ttf/STIXGeneral.ttf
p99
sg20
g21
sbag1
(g8
g3
NtRp100
(dp101
g11
g40
sg13
VSTIXNonUnicode
p102
sg15
I400
sg16
g12
sg17
g12
sg18
V/Users/moritzberthold/anaconda2/lib/python2.7/site-packages/matplotlib/mpl-data/fonts/ttf/STIXNonUniIta.ttf
p103
sg20
g21
sbag1
(g8
g3
NtRp104
(dp105
g11
g12
sg13
VSTIXSizeTwoSym
p106
sg15
I700
sg16
g12
sg17
g12
sg18
V/Users/moritzberthold/anaconda2/lib/python2.7/site-packages/matplotlib/mpl-data/fonts/ttf/STIXSizTwoSymBol.ttf
p107
sg20
g21
sbag1
(g8
g3
NtRp108
(dp109
g11
g12
sg13
Vcmtt10
p110
sg15
I400
sg16
g12
sg17
g12
sg18
V/Users/moritzberthold/anaconda2/lib/python2.7/site-packages/matplotlib/mpl-data/fonts/ttf/cmtt10.ttf
p111
sg20
g21
sbag1
(g8
g3
NtRp112
(dp113
g11
g85
sg13
VBitstream Vera Sans Mono
p114
sg15
I400
sg16
g12
sg17
g12
sg18
V/Users/moritzberthold/anaconda2/lib/python2.7/site-packages/matplotlib/mpl-data/fonts/ttf/VeraMoIt.ttf
p115
sg20
g21
sbag1
(g8
g3
NtRp116
(dp117
g11
g12
sg13
VSTIXNonUnicode
p118
sg15
I400
sg16
g12
sg17
g12
sg18
V/Users/moritzberthold/anaconda2/lib/python2.7/site-packages/matplotlib/mpl-data/fonts/ttf/STIXNonUni.ttf
p119
sg20
g21
sbag1
(g8
g3
NtRp120
(dp121
g11
g12
sg13
VBitstream Vera Sans Mono
p122
sg15
I700
sg16
g12
sg17
g12
sg18
V/Users/moritzberthold/anaconda2/lib/python2.7/site-packages/matplotlib/mpl-data/fonts/ttf/VeraMoBd.ttf
p123
sg20
g21
sbag1
(g8
g3
NtRp124
(dp125
g11
g12
sg13
VSTIXNonUnicode
p126
sg15
I700
sg16
g12
sg17
g12
sg18
V/Users/moritzberthold/anaconda2/lib/python2.7/site-packages/matplotlib/mpl-data/fonts/ttf/STIXNonUniBol.ttf
p127
sg20
g21
sbag1
(g8
g3
NtRp128
(dp129
g11
g12
sg13
VSTIXSizeThreeSym
p130
sg15
I400
sg16
g12
sg17
g12
sg18
V/Users/moritzberthold/anaconda2/lib/python2.7/site-packages/matplotlib/mpl-data/fonts/ttf/STIXSizThreeSymReg.ttf
p131
sg20
g21
sbag1
(g8
g3
NtRp132
(dp133
g11
g12
sg13
VBitstream Vera Sans
p134
sg15
I400
sg16
g12
sg17
g12
sg18
V/Users/moritzberthold/anaconda2/lib/python2.7/site-packages/matplotlib/mpl-data/fonts/ttf/Vera.ttf
p135
sg20
g21
sbag1
(g8
g3
NtRp136
(dp137
g11
g12
sg13
Vcmss10
p138
sg15
I400
sg16
g12
sg17
g12
sg18
V/Users/moritzberthold/anaconda2/lib/python2.7/site-packages/matplotlib/mpl-data/fonts/ttf/cmss10.ttf
p139
sg20
g21
sbag1
(g8
g3
NtRp140
(dp141
g11
g40
sg13
VSTIXNonUnicode
p142
sg15
I700
sg16
g12
sg17
g12
sg18
V/Users/moritzberthold/anaconda2/lib/python2.7/site-packages/matplotlib/mpl-data/fonts/ttf/STIXNonUniBolIta.ttf
p143
sg20
g21
sbag1
(g8
g3
NtRp144
(dp145
g11
g85
sg13
VBitstream Vera Sans
p146
sg15
I700
sg16
g12
sg17
g12
sg18
V/Users/moritzberthold/anaconda2/lib/python2.7/site-packages/matplotlib/mpl-data/fonts/ttf/VeraBI.ttf
p147
sg20
g21
sbag1
(g8
g3
NtRp148
(dp149
g11
g12
sg13
VBitstream Vera Serif
p150
sg15
I700
sg16
g12
sg17
g12
sg18
V/Users/moritzberthold/anaconda2/lib/python2.7/site-packages/matplotlib/mpl-data/fonts/ttf/VeraSeBd.ttf
p151
sg20
g21
sbag1
(g8
g3
NtRp152
(dp153
g11
g12
sg13
VBitstream Vera Sans
p154
sg15
I700
sg16
g12
sg17
g12
sg18
V/Users/moritzberthold/anaconda2/lib/python2.7/site-packages/matplotlib/mpl-data/fonts/ttf/VeraBd.ttf
p155
sg20
g21
sbag1
(g8
g3
NtRp156
(dp157
g11
g40
sg13
VTrebuchet MS
p158
sg15
I400
sg16
g12
sg17
g12
sg18
V/Library/Fonts/Trebuchet MS Italic.ttf
p159
sg20
g21
sbag1
(g8
g3
NtRp160
(dp161
g11
g12
sg13
VHoefler Text
p162
sg15
I400
sg16
g12
sg17
g12
sg18
V/Library/Fonts/Hoefler Text Ornaments.ttf
p163
sg20
g21
sbag1
(g8
g3
NtRp164
(dp165
g11
g12
sg13
VMshtakan
p166
sg15
I400
sg16
g12
sg17
g12
sg18
V/Library/Fonts/MshtakanRegular.ttf
p167
sg20
g21
sbag1
(g8
g3
NtRp168
(dp169
g11
g12
sg13
VOsaka
p170
sg15
I400
sg16
g12
sg17
g12
sg18
V/Library/Fonts/Osaka.ttf
p171
sg20
g21
sbag1
(g8
g3
NtRp172
(dp173
g11
g85
sg13
VLuxi Mono
p174
sg15
I400
sg16
g12
sg17
g12
sg18
V/usr/X11/lib/X11/fonts/TTF/luximri.ttf
p175
sg20
g21
sbag1
(g8
g3
NtRp176
(dp177
g11
g12
sg13
VHiragino Mincho Pro
p178
sg15
I400
sg16
g12
sg17
g12
sg18
V/Library/Fonts/\u30d2\u30e9\u30ad\u3099\u30ce\u660e\u671d Pro W3.otf
p179
sg20
g21
sbag1
(g8
g3
NtRp180
(dp181
g11
g12
sg13
VVerdana
p182
sg15
I700
sg16
g12
sg17
g12
sg18
V/Library/Fonts/Verdana Bold.ttf
p183
sg20
g21
sbag1
(g8
g3
NtRp184
(dp185
g11
g12
sg13
VApple SD Gothic Neo
p186
sg15
I200
sg16
g12
sg17
g12
sg18
V/Library/Fonts/AppleSDGothicNeo-UltraLight.otf
p187
sg20
g21
sbag1
(g8
g3
NtRp188
(dp189
g11
g12
sg13
VArial Unicode MS
p190
sg15
I400
sg16
g12
sg17
g12
sg18
V/Library/Fonts/Arial Unicode.ttf
p191
sg20
g21
sbag1
(g8
g3
NtRp192
(dp193
g11
g12
sg13
VSTIXSizeThreeSym
p194
sg15
I400
sg16
g12
sg17
g12
sg18
V/Library/Fonts/STIXSizThreeSymReg.otf
p195
sg20
g21
sbag1
(g8
g3
NtRp196
(dp197
g11
g12
sg13
VDIN Condensed
p198
sg15
I700
sg16
Vcondensed
p199
sg17
g12
sg18
V/Library/Fonts/DIN Condensed Bold.ttf
p200
sg20
g21
sbag1
(g8
g3
NtRp201
(dp202
g11
g85
sg13
VLuxi Sans
p203
sg15
I400
sg16
g12
sg17
g12
sg18
V/usr/X11/lib/X11/fonts/TTF/luxisri.ttf
p204
sg20
g21
sbag1
(g8
g3
NtRp205
(dp206
g11
g12
sg13
VHiragino Mincho ProN
p207
sg15
I400
sg16
g12
sg17
g12
sg18
V/System/Library/Fonts/\u30d2\u30e9\u30ad\u3099\u30ce\u660e\u671d ProN W3.otf
p208
sg20
g21
sbag1
(g8
g3
NtRp209
(dp210
g11
g12
sg13
VTimes New Roman
p211
sg15
I500
sg16
g12
sg17
g12
sg18
V/Library/Fonts/Times New Roman.ttf
p212
sg20
g21
sbag1
(g8
g3
NtRp213
(dp214
g11
g12
sg13
VLiSong Pro
p215
sg15
I400
sg16
g12
sg17
g12
sg18
V/Library/Fonts/\u5137\u5b8b Pro.ttf
p216
sg20
g21
sbag1
(g8
g3
NtRp217
(dp218
g11
g12
sg13
VApple SD Gothic Neo
p219
sg15
I800
sg16
g12
sg17
g12
sg18
V/Library/Fonts/AppleSDGothicNeo-Heavy.otf
p220
sg20
g21
sbag1
(g8
g3
NtRp221
(dp222
g11
g12
sg13
VArial
p223
sg15
I400
sg16
g12
sg17
g12
sg18
V/Library/Fonts/Arial.ttf
p224
sg20
g21
sbag1
(g8
g3
NtRp225
(dp226
g11
g12
sg13
VAppleGothic
p227
sg15
I400
sg16
g12
sg17
g12
sg18
V/Library/Fonts/AppleGothic.ttf
p228
sg20
g21
sbag1
(g8
g3
NtRp229
(dp230
g11
g12
sg13
VYuGothic
p231
sg15
I400
sg16
g12
sg17
g12
sg18
V/Library/Fonts/Yu Gothic Medium.otf
p232
sg20
g21
sbag1
(g8
g3
NtRp233
(dp234
g11
g12
sg13
VGujarati MT
p235
sg15
I700
sg16
g12
sg17
g12
sg18
V/Library/Fonts/GujaratiMTBold.ttf
p236
sg20
g21
sbag1
(g8
g3
NtRp237
(dp238
g11
g12
sg13
VArial Narrow
p239
sg15
I400
sg16
g199
sg17
g12
sg18
V/Library/Fonts/Arial Narrow.ttf
p240
sg20
g21
sbag1
(g8
g3
NtRp241
(dp242
g11
g12
sg13
VApple SD Gothic Neo
p243
sg15
I700
sg16
g12
sg17
g12
sg18
V/System/Library/Fonts/AppleSDGothicNeo-Bold.otf
p244
sg20
g21
sbag1
(g8
g3
NtRp245
(dp246
g11
g12
sg13
VHiragino Maru Gothic ProN
p247
sg15
I400
sg16
g12
sg17
g12
sg18
V/Library/Fonts/\u30d2\u30e9\u30ad\u3099\u30ce\u4e38\u30b3\u3099 ProN W4.otf
p248
sg20
g21
sbag1
(g8
g3
NtRp249
(dp250
g11
g85
sg13
VMshtakan
p251
sg15
I400
sg16
g12
sg17
g12
sg18
V/Library/Fonts/MshtakanOblique.ttf
p252
sg20
g21
sbag1
(g8
g3
NtRp253
(dp254
g11
g12
sg13
VHiragino Mincho Pro
p255
sg15
I700
sg16
g12
sg17
g12
sg18
V/Library/Fonts/\u30d2\u30e9\u30ad\u3099\u30ce\u660e\u671d Pro W6.otf
p256
sg20
g21
sbag1
(g8
g3
NtRp257
(dp258
g11
g12
sg13
VSerto Batnan
p259
sg15
I700
sg16
g12
sg17
g12
sg18
V/usr/X11/lib/X11/fonts/OTF/SyrCOMBatnanBold.otf
p260
sg20
g21
sbag1
(g8
g3
NtRp261
(dp262
g11
g12
sg13
VAppleMyungjo
p263
sg15
I400
sg16
g12
sg17
g12
sg18
V/Library/Fonts/AppleMyungjo.ttf
p264
sg20
g21
sbag1
(g8
g3
NtRp265
(dp266
g11
g12
sg13
VSerto Mardin
p267
sg15
I700
sg16
g12
sg17
g12
sg18
V/usr/X11/lib/X11/fonts/OTF/SyrCOMMardinBold.otf
p268
sg20
g21
sbag1
(g8
g3
NtRp269
(dp270
g11
g12
sg13
VMishafi Gold
p271
sg15
I400
sg16
g12
sg17
g12
sg18
V/Library/Fonts/Mishafi Gold.ttf
p272
sg20
g21
sbag1
(g8
g3
NtRp273
(dp274
g11
g12
sg13
VSerto Jerusalem Outline
p275
sg15
I400
sg16
g12
sg17
g12
sg18
V/usr/X11/lib/X11/fonts/OTF/SyrCOMJerusalemOutline.otf
p276
sg20
g21
sbag1
(g8
g3
NtRp277
(dp278
g11
g12
sg13
VZapf Dingbats
p279
sg15
I400
sg16
g12
sg17
g12
sg18
V/System/Library/Fonts/ZapfDingbats.ttf
p280
sg20
g21
sbag1
(g8
g3
NtRp281
(dp282
g11
g12
sg13
VSTIXIntegralsD
p283
sg15
I700
sg16
g12
sg17
g12
sg18
V/Library/Fonts/STIXIntDBol.otf
p284
sg20
g21
sbag1
(g8
g3
NtRp285
(dp286
g11
g12
sg13
VDIN Alternate
p287
sg15
I700
sg16
g12
sg17
g12
sg18
V/Library/Fonts/DIN Alternate Bold.ttf
p288
sg20
g21
sbag1
(g8
g3
NtRp289
(dp290
g11
g12
sg13
VMyanmar Sangam MN
p291
sg15
I400
sg16
g12
sg17
g12
sg18
V/Library/Fonts/Myanmar Sangam MN.ttf
p292
sg20
g21
sbag1
(g8
g3
NtRp293
(dp294
g11
g12
sg13
VSTIXSizeThreeSym
p295
sg15
I700
sg16
g12
sg17
g12
sg18
V/Library/Fonts/STIXSizThreeSymBol.otf
p296
sg20
g21
sbag1
(g8
g3
NtRp297
(dp298
g11
g12
sg13
VCourier New
p299
sg15
I400
sg16
g12
sg17
g12
sg18
V/Library/Fonts/Courier New.ttf
p300
sg20
g21
sbag1
(g8
g3
NtRp301
(dp302
g11
g40
sg13
VArial Narrow
p303
sg15
I700
sg16
g199
sg17
g12
sg18
V/Library/Fonts/Arial Narrow Bold Italic.ttf
p304
sg20
g21
sbag1
(g8
g3
NtRp305
(dp306
g11
g12
sg13
VSerto Jerusalem
p307
sg15
I400
sg16
g12
sg17
g12
sg18
V/usr/X11/lib/X11/fonts/OTF/SyrCOMJerusalem.otf
p308
sg20
g21
sbag1
(g8
g3
NtRp309
(dp310
g11
g12
sg13
VLuminari
p311
sg15
I400
sg16
g12
sg17
g12
sg18
V/Library/Fonts/Luminari.ttf
p312
sg20
g21
sbag1
(g8
g3
NtRp313
(dp314
g11
g12
sg13
VZapfino
p315
sg15
I400
sg16
g12
sg17
g12
sg18
V/Library/Fonts/Zapfino.ttf
p316
sg20
g21
sbag1
(g8
g3
NtRp317
(dp318
g11
g12
sg13
VArial Narrow
p319
sg15
I700
sg16
g199
sg17
g12
sg18
V/Library/Fonts/Arial Narrow Bold.ttf
p320
sg20
g21
sbag1
(g8
g3
NtRp321
(dp322
g11
g40
sg13
VTimes New Roman
p323
sg15
I500
sg16
g12
sg17
g12
sg18
V/Library/Fonts/Times New Roman Italic.ttf
p324
sg20
g21
sbag1
(g8
g3
NtRp325
(dp326
g11
g12
sg13
VKrungthep
p327
sg15
I400
sg16
g12
sg17
g12
sg18
V/Library/Fonts/Krungthep.ttf
p328
sg20
g21
sbag1
(g8
g3
NtRp329
(dp330
g11
g12
sg13
VApple SD Gothic Neo
p331
sg15
I700
sg16
g12
sg17
g12
sg18
V/Library/Fonts/AppleSDGothicNeo-ExtraBold.otf
p332
sg20
g21
sbag1
(g8
g3
NtRp333
(dp334
g11
g12
sg13
VGeorgia
p335
sg15
I400
sg16
g12
sg17
g12
sg18
V/Library/Fonts/Georgia.ttf
p336
sg20
g21
sbag1
(g8
g3
NtRp337
(dp338
g11
g12
sg13
VSTIXIntegralsSm
p339
sg15
I700
sg16
g12
sg17
g12
sg18
V/Library/Fonts/STIXIntSmBol.otf
p340
sg20
g21
sbag1
(g8
g3
NtRp341
(dp342
g11
g12
sg13
VDiwan Thuluth
p343
sg15
I400
sg16
g12
sg17
g12
sg18
V/Library/Fonts/Diwan Thuluth.ttf
p344
sg20
g21
sbag1
(g8
g3
NtRp345
(dp346
g11
g12
sg13
VTrebuchet MS
p347
sg15
I700
sg16
g12
sg17
g12
sg18
V/Library/Fonts/Trebuchet MS Bold.ttf
p348
sg20
g21
sbag1
(g8
g3
NtRp349
(dp350
g11
g12
sg13
VLuxi Serif
p351
sg15
I700
sg16
g12
sg17
g12
sg18
V/usr/X11R6/lib/X11/fonts/TTF/luxirb.ttf
p352
sg20
g21
sbag1
(g8
g3
NtRp353
(dp354
g11
g12
sg13
VBradley Hand
p355
sg15
I700
sg16
g12
sg17
g12
sg18
V/Library/Fonts/Bradley Hand Bold.ttf
p356
sg20
g21
sbag1
(g8
g3
NtRp357
(dp358
g11
g85
sg13
VLuxi Serif
p359
sg15
I700
sg16
g12
sg17
g12
sg18
V/usr/X11R6/lib/X11/fonts/TTF/luxirbi.ttf
p360
sg20
g21
sbag1
(g8
g3
NtRp361
(dp362
g11
g40
sg13
VTimes New Roman
p363
sg15
I700
sg16
g12
sg17
g12
sg18
V/Library/Fonts/Times New Roman Bold Italic.ttf
p364
sg20
g21
sbag1
(g8
g3
NtRp365
(dp366
g11
g40
sg13
VArial Narrow
p367
sg15
I400
sg16
g199
sg17
g12
sg18
V/Library/Fonts/Arial Narrow Italic.ttf
p368
sg20
g21
sbag1
(g8
g3
NtRp369
(dp370
g11
g12
sg13
VHiragino Kaku Gothic Pro
p371
sg15
I700
sg16
g12
sg17
g12
sg18
V/Library/Fonts/\u30d2\u30e9\u30ad\u3099\u30ce\u89d2\u30b3\u3099 Pro W6.otf
p372
sg20
g21
sbag1
(g8
g3
NtRp373
(dp374
g11
g12
sg13
VEast Syriac Ctesiphon
p375
sg15
I400
sg16
g12
sg17
g12
sg18
V/usr/X11/lib/X11/fonts/OTF/SyrCOMCtesiphon.otf
p376
sg20
g21
sbag1
(g8
g3
NtRp377
(dp378
g11
g12
sg13
VHiragino Maru Gothic Pro
p379
sg15
I400
sg16
g12
sg17
g12
sg18
V/Library/Fonts/\u30d2\u30e9\u30ad\u3099\u30ce\u4e38\u30b3\u3099 Pro W4.otf
p380
sg20
g21
sbag1
(g8
g3
NtRp381
(dp382
g11
g12
sg13
VApple SD Gothic Neo
p383
sg15
I400
sg16
g12
sg17
g12
sg18
V/System/Library/Fonts/AppleSDGothicNeo-Regular.otf
p384
sg20
g21
sbag1
(g8
g3
NtRp385
(dp386
g11
g12
sg13
VPilGi
p387
sg15
I400
sg16
g12
sg17
g12
sg18
V/Library/Fonts/Pilgiche.ttf
p388
sg20
g21
sbag1
(g8
g3
NtRp389
(dp390
g11
g12
sg13
VEstrangelo Midyat
p391
sg15
I400
sg16
g12
sg17
g12
sg18
V/usr/X11/lib/X11/fonts/OTF/SyrCOMMidyat.otf
p392
sg20
g21
sbag1
(g8
g3
NtRp393
(dp394
g11
g12
sg13
VApple Braille
p395
sg15
I400
sg16
g12
sg17
g12
sg18
V/System/Library/Fonts/Apple Braille Outline 8 Dot.ttf
p396
sg20
g21
sbag1
(g8
g3
NtRp397
(dp398
g11
g12
sg13
VPlantagenet Cherokee
p399
sg15
I400
sg16
g12
sg17
g12
sg18
V/Library/Fonts/PlantagenetCherokee.ttf
p400
sg20
g21
sbag1
(g8
g3
NtRp401
(dp402
g11
g12
sg13
VEstrangelo TurAbdin
p403
sg15
I400
sg16
g12
sg17
g12
sg18
V/usr/X11/lib/X11/fonts/OTF/SyrCOMTurAbdin.otf
p404
sg20
g21
sbag1
(g8
g3
NtRp405
(dp406
g11
g12
sg13
VTimes New Roman
p407
sg15
I700
sg16
g12
sg17
g12
sg18
V/Library/Fonts/Times New Roman Bold.ttf
p408
sg20
g21
sbag1
(g8
g3
NtRp409
(dp410
g11
g85
sg13
VLuxi Sans
p411
sg15
I700
sg16
g12
sg17
g12
sg18
V/usr/X11/lib/X11/fonts/TTF/luxisbi.ttf
p412
sg20
g21
sbag1
(g8
g3
NtRp413
(dp414
g11
g40
sg13
VArial
p415
sg15
I700
sg16
g12
sg17
g12
sg18
V/Library/Fonts/Arial Bold Italic.ttf
p416
sg20
g21
sbag1
(g8
g3
NtRp417
(dp418
g11
g12
sg13
VGoha-Tibeb Zemen
p419
sg15
I400
sg16
g12
sg17
g12
sg18
V/usr/X11/lib/X11/fonts/TTF/GohaTibebZemen.ttf
p420
sg20
g21
sbag1
(g8
g3
NtRp421
(dp422
g11
g12
sg13
VHeadLineA
p423
sg15
I400
sg16
g12
sg17
g12
sg18
V/Library/Fonts/HeadlineA.ttf
p424
sg20
g21
sbag1
(g8
g3
NtRp425
(dp426
g11
g12
sg13
VHiragino Kaku Gothic Pro
p427
sg15
I400
sg16
g12
sg17
g12
sg18
V/Library/Fonts/\u30d2\u30e9\u30ad\u3099\u30ce\u89d2\u30b3\u3099 Pro W3.otf
p428
sg20
g21
sbag1
(g8
g3
NtRp429
(dp430
g11
g12
sg13
VSTIXVariants
p431
sg15
I400
sg16
g12
sg17
g12
sg18
V/Library/Fonts/STIXVar.otf
p432
sg20
g21
sbag1
(g8
g3
NtRp433
(dp434
g11
g12
sg13
VMishafi
p435
sg15
I400
sg16
g12
sg17
g12
sg18
V/Library/Fonts/Mishafi.ttf
p436
sg20
g21
sbag1
(g8
g3
NtRp437
(dp438
g11
g12
sg13
VSTIXVariants
p439
sg15
I700
sg16
g12
sg17
g12
sg18
V/Library/Fonts/STIXVarBol.otf
p440
sg20
g21
sbag1
(g8
g3
NtRp441
(dp442
g11
g12
sg13
VSerto Malankara
p443
sg15
I400
sg16
g12
sg17
g12
sg18
V/usr/X11/lib/X11/fonts/OTF/SyrCOMMalankara.otf
p444
sg20
g21
sbag1
(g8
g3
NtRp445
(dp446
g11
g12
sg13
VHiragino Sans GB
p447
sg15
I400
sg16
g12
sg17
g12
sg18
V/Library/Fonts/Hiragino Sans GB W3.otf
p448
sg20
g21
sbag1
(g8
g3
NtRp449
(dp450
g11
g12
sg13
VSTFangsong
p451
sg15
I400
sg16
g12
sg17
g12
sg18
V/Library/Fonts/\u534e\u6587\u4eff\u5b8b.ttf
p452
sg20
g21
sbag1
(g8
g3
NtRp453
(dp454
g11
g12
sg13
VMshtakan
p455
sg15
I700
sg16
g12
sg17
g12
sg18
V/Library/Fonts/MshtakanBold.ttf
p456
sg20
g21
sbag1
(g8
g3
NtRp457
(dp458
g11
g12
sg13
VSTHeiti
p459
sg15
I400
sg16
g12
sg17
g12
sg18
V/Library/Fonts/\u534e\u6587\u9ed1\u4f53.ttf
p460
sg20
g21
sbag1
(g8
g3
NtRp461
(dp462
g11
g12
sg13
VSerto Batnan
p463
sg15
I400
sg16
g12
sg17
g12
sg18
V/usr/X11/lib/X11/fonts/OTF/SyrCOMBatnan.otf
p464
sg20
g21
sbag1
(g8
g3
NtRp465
(dp466
g11
g12
sg13
VSTIXIntegralsUp
p467
sg15
I700
sg16
g12
sg17
g12
sg18
V/Library/Fonts/STIXIntUpBol.otf
p468
sg20
g21
sbag1
(g8
g3
NtRp469
(dp470
g11
g12
sg13
VWawati TC
p471
sg15
I400
sg16
g12
sg17
g12
sg18
V/Library/Fonts/WawaTC-Regular.otf
p472
sg20
g21
sbag1
(g8
g3
NtRp473
(dp474
g11
g12
sg13
VSkia
p475
sg15
I400
sg16
g12
sg17
g12
sg18
V/Library/Fonts/Skia.ttf
p476
sg20
g21
sbag1
(g8
g3
NtRp477
(dp478
g11
g12
sg13
VSTIXSizeFiveSym
p479
sg15
I400
sg16
g12
sg17
g12
sg18
V/Library/Fonts/STIXSizFiveSymReg.otf
p480
sg20
g21
sbag1
(g8
g3
NtRp481
(dp482
g11
g12
sg13
VVerdana
p483
sg15
I400
sg16
g12
sg17
g12
sg18
V/Library/Fonts/Verdana.ttf
p484
sg20
g21
sbag1
(g8
g3
NtRp485
(dp486
g11
g12
sg13
VFarisi
p487
sg15
I400
sg16
g12
sg17
g12
sg18
V/Library/Fonts/Farisi.ttf
p488
sg20
g21
sbag1
(g8
g3
NtRp489
(dp490
g11
g12
sg13
VLuxi Sans
p491
sg15
I700
sg16
g12
sg17
g12
sg18
V/usr/X11/lib/X11/fonts/TTF/luxisb.ttf
p492
sg20
g21
sbag1
(g8
g3
NtRp493
(dp494
g11
g12
sg13
VSerto Urhoy
p495
sg15
I700
sg16
g12
sg17
g12
sg18
V/usr/X11/lib/X11/fonts/OTF/SyrCOMUrhoyBold.otf
p496
sg20
g21
sbag1
(g8
g3
NtRp497
(dp498
g11
g12
sg13
VGurmukhi MT
p499
sg15
I400
sg16
g12
sg17
g12
sg18
V/Library/Fonts/Gurmukhi.ttf
p500
sg20
g21
sbag1
(g8
g3
NtRp501
(dp502
g11
g12
sg13
VBodoni 72 Smallcaps
p503
sg15
I400
sg16
g12
sg17
g12
sg18
V/Library/Fonts/Bodoni 72 Smallcaps Book.ttf
p504
sg20
g21
sbag1
(g8
g3
NtRp505
(dp506
g11
g12
sg13
VYuGothic
p507
sg15
I700
sg16
g12
sg17
g12
sg18
V/Library/Fonts/Yu Gothic Bold.otf
p508
sg20
g21
sbag1
(g8
g3
NtRp509
(dp510
g11
g12
sg13
VYuMincho
p511
sg15
I700
sg16
g12
sg17
g12
sg18
V/Library/Fonts/Yu Mincho Demibold.otf
p512
sg20
g21
sbag1
(g8
g3
NtRp513
(dp514
g11
g85
sg13
VLuxi Serif
p515
sg15
I400
sg16
g12
sg17
g12
sg18
V/usr/X11R6/lib/X11/fonts/TTF/luxirri.ttf
p516
sg20
g21
sbag1
(g8
g3
NtRp517
(dp518
g11
g12
sg13
VLuxi Sans
p519
sg15
I400
sg16
g12
sg17
g12
sg18
V/usr/X11/lib/X11/fonts/TTF/luxisr.ttf
p520
sg20
g21
sbag1
(g8
g3
NtRp521
(dp522
g11
g40
sg13
VArial
p523
sg15
I400
sg16
g12
sg17
g12
sg18
V/Library/Fonts/Arial Italic.ttf
p524
sg20
g21
sbag1
(g8
g3
NtRp525
(dp526
g11
g12
sg13
VEast Syriac Adiabene
p527
sg15
I400
sg16
g12
sg17
g12
sg18
V/usr/X11/lib/X11/fonts/OTF/SyrCOMAdiabene.otf
p528
sg20
g21
sbag1
(g8
g3
NtRp529
(dp530
g11
g40
sg13
VSTIXNonUnicode
p531
sg15
I700
sg16
g12
sg17
g12
sg18
V/Library/Fonts/STIXNonUniBolIta.otf
p532
sg20
g21
sbag1
(g8
g3
NtRp533
(dp534
g11
g12
sg13
VApple Braille
p535
sg15
I400
sg16
g12
sg17
g12
sg18
V/System/Library/Fonts/Apple Braille Pinpoint 8 Dot.ttf
p536
sg20
g21
sbag1
(g8
g3
NtRp537
(dp538
g11
g40
sg13
VGeorgia
p539
sg15
I400
sg16
g12
sg17
g12
sg18
V/Library/Fonts/Georgia Italic.ttf
p540
sg20
g21
sbag1
(g8
g3
NtRp541
(dp542
g11
g12
sg13
VApple Braille
p543
sg15
I400
sg16
g12
sg17
g12
sg18
V/System/Library/Fonts/Apple Braille Outline 6 Dot.ttf
p544
sg20
g21
sbag1
(g8
g3
NtRp545
(dp546
g11
g12
sg13
VChalkduster
p547
sg15
I400
sg16
g12
sg17
g12
sg18
V/Library/Fonts/Chalkduster.ttf
p548
sg20
g21
sbag1
(g8
g3
NtRp549
(dp550
g11
g40
sg13
VCourier New
p551
sg15
I700
sg16
g12
sg17
g12
sg18
V/Library/Fonts/Courier New Bold Italic.ttf
p552
sg20
g21
sbag1
(g8
g3
NtRp553
(dp554
g11
g12
sg13
VWawati SC
p555
sg15
I400
sg16
g12
sg17
g12
sg18
V/Library/Fonts/WawaSC-Regular.otf
p556
sg20
g21
sbag1
(g8
g3
NtRp557
(dp558
g11
g12
sg13
VEstrangelo Talada
p559
sg15
I400
sg16
g12
sg17
g12
sg18
V/usr/X11/lib/X11/fonts/OTF/SyrCOMTalada.otf
p560
sg20
g21
sbag1
(g8
g3
NtRp561
(dp562
g11
g12
sg13
VSerto Kharput
p563
sg15
I400
sg16
g12
sg17
g12
sg18
V/usr/X11/lib/X11/fonts/OTF/SyrCOMKharput.otf
p564
sg20
g21
sbag1
(g8
g3
NtRp565
(dp566
g11
g12
sg13
VArial Rounded MT Bold
p567
sg15
I700
sg16
g12
sg17
g12
sg18
V/Library/Fonts/Arial Rounded Bold.ttf
p568
sg20
g21
sbag1
(g8
g3
NtRp569
(dp570
g11
g12
sg13
VHiragino Kaku Gothic Std
p571
sg15
I700
sg16
g12
sg17
g12
sg18
V/Library/Fonts/\u30d2\u30e9\u30ad\u3099\u30ce\u89d2\u30b3\u3099 Std W8.otf
p572
sg20
g21
sbag1
(g8
g3
NtRp573
(dp574
g11
g12
sg13
V.Hiragino Kaku Gothic Interface
p575
sg15
I400
sg16
g12
sg17
g12
sg18
V/System/Library/Fonts/HiraKakuInterface-W1.otf
p576
sg20
g21
sbag1
(g8
g3
NtRp577
(dp578
g11
g12
sg13
VHiragino Kaku Gothic ProN
p579
sg15
I700
sg16
g12
sg17
g12
sg18
V/System/Library/Fonts/\u30d2\u30e9\u30ad\u3099\u30ce\u89d2\u30b3\u3099 ProN W6.otf
p580
sg20
g21
sbag1
(g8
g3
NtRp581
(dp582
g11
g12
sg13
VPCMyungjo
p583
sg15
I400
sg16
g12
sg17
g12
sg18
V/Library/Fonts/PCmyoungjo.ttf
p584
sg20
g21
sbag1
(g8
g3
NtRp585
(dp586
g11
g12
sg13
VLastResort
p587
sg15
I400
sg16
g12
sg17
g12
sg18
V/System/Library/Fonts/LastResort.ttf
p588
sg20
g21
sbag1
(g8
g3
NtRp589
(dp590
g11
g12
sg13
VApple SD Gothic Neo
p591
sg15
I200
sg16
g12
sg17
g12
sg18
V/Library/Fonts/AppleSDGothicNeo-Light.otf
p592
sg20
g21
sbag1
(g8
g3
NtRp593
(dp594
g11
g40
sg13
VVerdana
p595
sg15
I700
sg16
g12
sg17
g12
sg18
V/Library/Fonts/Verdana Bold Italic.ttf
p596
sg20
g21
sbag1
(g8
g3
NtRp597
(dp598
g11
g12
sg13
VEstrangelo Quenneshrin
p599
sg15
I400
sg16
g12
sg17
g12
sg18
V/usr/X11/lib/X11/fonts/OTF/SyrCOMQenNeshrin.otf
p600
sg20
g21
sbag1
(g8
g3
NtRp601
(dp602
g11
g12
sg13
VLiHei Pro
p603
sg15
I400
sg16
g12
sg17
g12
sg18
V/Library/Fonts/\u5137\u9ed1 Pro.ttf
p604
sg20
g21
sbag1
(g8
g3
NtRp605
(dp606
g11
g12
sg13
VHiragino Sans GB
p607
sg15
I700
sg16
g12
sg17
g12
sg18
V/Library/Fonts/Hiragino Sans GB W6.otf
p608
sg20
g21
sbag1
(g8
g3
NtRp609
(dp610
g11
g12
sg13
VKailasa
p611
sg15
I400
sg16
g12
sg17
g12
sg18
V/Library/Fonts/Kailasa.ttf
p612
sg20
g21
sbag1
(g8
g3
NtRp613
(dp614
g11
g12
sg13
VEstrangelo Edessa
p615
sg15
I400
sg16
g12
sg17
g12
sg18
V/usr/X11/lib/X11/fonts/OTF/SyrCOMEdessa.otf
p616
sg20
g21
sbag1
(g8
g3
NtRp617
(dp618
g11
g12
sg13
VSTIXIntegralsSm
p619
sg15
I400
sg16
g12
sg17
g12
sg18
V/Library/Fonts/STIXIntSmReg.otf
p620
sg20
g21
sbag1
(g8
g3
NtRp621
(dp622
g11
g12
sg13
VApple SD Gothic Neo
p623
sg15
I400
sg16
g12
sg17
g12
sg18
V/Library/Fonts/AppleSDGothicNeo-Thin.otf
p624
sg20
g21
sbag1
(g8
g3
NtRp625
(dp626
g11
g12
sg13
VKokonor
p627
sg15
I400
sg16
g12
sg17
g12
sg18
V/Library/Fonts/Kokonor.ttf
p628
sg20
g21
sbag1
(g8
g3
NtRp629
(dp630
g11
g12
sg13
VGoha-Tibeb Zemen
p631
sg15
I400
sg16
g12
sg17
g12
sg18
V/usr/X11/lib/X11/fonts/OTF/GohaTibebZemen.otf
p632
sg20
g21
sbag1
(g8
g3
NtRp633
(dp634
g11
g40
sg13
VVerdana
p635
sg15
I400
sg16
g12
sg17
g12
sg18
V/Library/Fonts/Verdana Italic.ttf
p636
sg20
g21
sbag1
(g8
g3
NtRp637
(dp638
g11
g12
sg13
VSTIXGeneral
p639
sg15
I700
sg16
g12
sg17
g12
sg18
V/Library/Fonts/STIXGeneralBol.otf
p640
sg20
g21
sbag1
(g8
g3
NtRp641
(dp642
g11
g12
sg13
VApple Braille
p643
sg15
I400
sg16
g12
sg17
g12
sg18
V/System/Library/Fonts/Apple Braille.ttf
p644
sg20
g21
sbag1
(g8
g3
NtRp645
(dp646
g11
g12
sg13
VInaiMathi
p647
sg15
I400
sg16
g12
sg17
g12
sg18
V/Library/Fonts/InaiMathi.ttf
p648
sg20
g21
sbag1
(g8
g3
NtRp649
(dp650
g11
g12
sg13
VEstrangelo Antioch
p651
sg15
I400
sg16
g12
sg17
g12
sg18
V/usr/X11/lib/X11/fonts/OTF/SyrCOMAntioch.otf
p652
sg20
g21
sbag1
(g8
g3
NtRp653
(dp654
g11
g12
sg13
VWeibei TC
p655
sg15
I700
sg16
g12
sg17
g12
sg18
V/Library/Fonts/WeibeiTC-Bold.otf
p656
sg20
g21
sbag1
(g8
g3
NtRp657
(dp658
g11
g12
sg13
VSTIXNonUnicode
p659
sg15
I400
sg16
g12
sg17
g12
sg18
V/Library/Fonts/STIXNonUni.otf
p660
sg20
g21
sbag1
(g8
g3
NtRp661
(dp662
g11
g12
sg13
VSerto Jerusalem
p663
sg15
I700
sg16
g12
sg17
g12
sg18
V/usr/X11/lib/X11/fonts/OTF/SyrCOMJerusalemBold.otf
p664
sg20
g21
sbag1
(g8
g3
NtRp665
(dp666
g11
g12
sg13
VOsaka
p667
sg15
I400
sg16
g12
sg17
g12
sg18
V/Library/Fonts/OsakaMono.ttf
p668
sg20
g21
sbag1
(g8
g3
NtRp669
(dp670
g11
g40
sg13
VSTIXNonUnicode
p671
sg15
I400
sg16
g12
sg17
g12
sg18
V/Library/Fonts/STIXNonUniIta.otf
p672
sg20
g21
sbag1
(g8
g3
NtRp673
(dp674
g11
g12
sg13
VSTIXIntegralsUp
p675
sg15
I400
sg16
g12
sg17
g12
sg18
V/Library/Fonts/STIXIntUpReg.otf
p676
sg20
g21
sbag1
(g8
g3
NtRp677
(dp678
g11
g12
sg13
VYuppy SC
p679
sg15
I400
sg16
g12
sg17
g12
sg18
V/Library/Fonts/YuppySC-Regular.otf
p680
sg20
g21
sbag1
(g8
g3
NtRp681
(dp682
g11
g12
sg13
VLuxi Mono
p683
sg15
I700
sg16
g12
sg17
g12
sg18
V/usr/X11R6/lib/X11/fonts/TTF/luximb.ttf
p684
sg20
g21
sbag1
(g8
g3
NtRp685
(dp686
g11
g12
sg13
VComic Sans MS
p687
sg15
I700
sg16
g12
sg17
g12
sg18
V/Library/Fonts/Comic Sans MS Bold.ttf
p688
sg20
g21
sbag1
(g8
g3
NtRp689
(dp690
g11
g12
sg13
VTrebuchet MS
p691
sg15
I400
sg16
g12
sg17
g12
sg18
V/Library/Fonts/Trebuchet MS.ttf
p692
sg20
g21
sbag1
(g8
g3
NtRp693
(dp694
g11
g12
sg13
VEstrangelo Nisibin
p695
sg15
I400
sg16
g12
sg17
g12
sg18
V/usr/X11/lib/X11/fonts/OTF/SyrCOMNisibin.otf
p696
sg20
g21
sbag1
(g8
g3
NtRp697
(dp698
g11
g12
sg13
VCourier New
p699
sg15
I700
sg16
g12
sg17
g12
sg18
V/Library/Fonts/Courier New Bold.ttf
p700
sg20
g21
sbag1
(g8
g3
NtRp701
(dp702
g11
g12
sg13
VBig Caslon
p703
sg15
I500
sg16
g12
sg17
g12
sg18
V/Library/Fonts/BigCaslon.ttf
p704
sg20
g21
sbag1
(g8
g3
NtRp705
(dp706
g11
g12
sg13
VSerto Urhoy
p707
sg15
I400
sg16
g12
sg17
g12
sg18
V/usr/X11/lib/X11/fonts/OTF/SyrCOMUrhoy.otf
p708
sg20
g21
sbag1
(g8
g3
NtRp709
(dp710
g11
g12
sg13
VAyuthaya
p711
sg15
I400
sg16
g12
sg17
g12
sg18
V/Library/Fonts/Ayuthaya.ttf
p712
sg20
g21
sbag1
(g8
g3
NtRp713
(dp714
g11
g12
sg13
VApple SD Gothic Neo
p715
sg15
I700
sg16
g12
sg17
g12
sg18
V/Library/Fonts/AppleSDGothicNeo-SemiBold.otf
p716
sg20
g21
sbag1
(g8
g3
NtRp717
(dp718
g11
g12
sg13
VHerculanum
p719
sg15
I400
sg16
g12
sg17
g12
sg18
V/Library/Fonts/Herculanum.ttf
p720
sg20
g21
sbag1
(g8
g3
NtRp721
(dp722
g11
g12
sg13
VWebdings
p723
sg15
I400
sg16
g12
sg17
g12
sg18
V/Library/Fonts/Webdings.ttf
p724
sg20
g21
sbag1
(g8
g3
NtRp725
(dp726
g11
g12
sg13
VApple Braille
p727
sg15
I400
sg16
g12
sg17
g12
sg18
V/System/Library/Fonts/Apple Braille Pinpoint 6 Dot.ttf
p728
sg20
g21
sbag1
(g8
g3
NtRp729
(dp730
g11
g12
sg13
VHiragino Mincho ProN
p731
sg15
I700
sg16
g12
sg17
g12
sg18
V/System/Library/Fonts/\u30d2\u30e9\u30ad\u3099\u30ce\u660e\u671d ProN W6.otf
p732
sg20
g21
sbag1
(g8
g3
NtRp733
(dp734
g11
g12
sg13
VSymbol
p735
sg15
I400
sg16
g12
sg17
g12
sg18
V/System/Library/Fonts/Symbol.ttf
p736
sg20
g21
sbag1
(g8
g3
NtRp737
(dp738
g11
g40
sg13
VTrebuchet MS
p739
sg15
I700
sg16
g12
sg17
g12
sg18
V/Library/Fonts/Trebuchet MS Bold Italic.ttf
p740
sg20
g21
sbag1
(g8
g3
NtRp741
(dp742
g11
g12
sg13
VSTHeiti
p743
sg15
I400
sg16
g12
sg17
g12
sg18
V/Library/Fonts/\u534e\u6587\u7ec6\u9ed1.ttf
p744
sg20
g21
sbag1
(g8
g3
NtRp745
(dp746
g11
g12
sg13
VLuxi Serif
p747
sg15
I400
sg16
g12
sg17
g12
sg18
V/usr/X11R6/lib/X11/fonts/TTF/luxirr.ttf
p748
sg20
g21
sbag1
(g8
g3
NtRp749
(dp750
g11
g12
sg13
VWingdings 2
p751
sg15
I400
sg16
g12
sg17
g12
sg18
V/Library/Fonts/Wingdings 2.ttf
p752
sg20
g21
sbag1
(g8
g3
NtRp753
(dp754
g11
g12
sg13
VSignPainter
p755
sg15
I400
sg16
g12
sg17
g12
sg18
V/Library/Fonts/SignPainter.otf
p756
sg20
g21
sbag1
(g8
g3
NtRp757
(dp758
g11
g12
sg13
VTahoma
p759
sg15
I400
sg16
g12
sg17
g12
sg18
V/Library/Fonts/Tahoma.ttf
p760
sg20
g21
sbag1
(g8
g3
NtRp761
(dp762
g11
g40
sg13
VBrush Script MT
p763
sg15
I400
sg16
g12
sg17
g12
sg18
V/Library/Fonts/Brush Script.ttf
p764
sg20
g21
sbag1
(g8
g3
NtRp765
(dp766
g11
g12
sg13
V.Keyboard
p767
sg15
I400
sg16
g12
sg17
g12
sg18
V/System/Library/Fonts/Keyboard.ttf
p768
sg20
g21
sbag1
(g8
g3
NtRp769
(dp770
g11
g12
sg13
VSTIXSizeOneSym
p771
sg15
I400
sg16
g12
sg17
g12
sg18
V/Library/Fonts/STIXSizOneSymReg.otf
p772
sg20
g21
sbag1
(g8
g3
NtRp773
(dp774
g11
g12
sg13
VSTIXIntegralsUpSm
p775
sg15
I400
sg16
g12
sg17
g12
sg18
V/Library/Fonts/STIXIntUpSmReg.otf
p776
sg20
g21
sbag1
(g8
g3
NtRp777
(dp778
g11
g12
sg13
VAndale Mono
p779
sg15
I400
sg16
g12
sg17
g12
sg18
V/Library/Fonts/Andale Mono.ttf
p780
sg20
g21
sbag1
(g8
g3
NtRp781
(dp782
g11
g12
sg13
VKhmer Sangam MN
p783
sg15
I400
sg16
g12
sg17
g12
sg18
V/Library/Fonts/Khmer Sangam MN.ttf
p784
sg20
g21
sbag1
(g8
g3
NtRp785
(dp786
g11
g85
sg13
VLuxi Mono
p787
sg15
I700
sg16
g12
sg17
g12
sg18
V/usr/X11R6/lib/X11/fonts/TTF/luximbi.ttf
p788
sg20
g21
sbag1
(g8
g3
NtRp789
(dp790
g11
g12
sg13
VYuMincho
p791
sg15
I400
sg16
g12
sg17
g12
sg18
V/Library/Fonts/Yu Mincho Medium.otf
p792
sg20
g21
sbag1
(g8
g3
NtRp793
(dp794
g11
g12
sg13
VMicrosoft Sans Serif
p795
sg15
I400
sg16
g12
sg17
g12
sg18
V/Library/Fonts/Microsoft Sans Serif.ttf
p796
sg20
g21
sbag1
(g8
g3
NtRp797
(dp798
g11
g12
sg13
VSTIXIntegralsUpD
p799
sg15
I700
sg16
g12
sg17
g12
sg18
V/Library/Fonts/STIXIntUpDBol.otf
p800
sg20
g21
sbag1
(g8
g3
NtRp801
(dp802
g11
g12
sg13
VLuxi Mono
p803
sg15
I400
sg16
g12
sg17
g12
sg18
V/usr/X11R6/lib/X11/fonts/TTF/luximr.ttf
p804
sg20
g21
sbag1
(g8
g3
NtRp805
(dp806
g11
g12
sg13
V.Hiragino Kaku Gothic Interface
p807
sg15
I400
sg16
g12
sg17
g12
sg18
V/System/Library/Fonts/HiraKakuInterface-W2.otf
p808
sg20
g21
sbag1
(g8
g3
NtRp809
(dp810
g11
g12
sg13
VSTIXGeneral
p811
sg15
I400
sg16
g12
sg17
g12
sg18
V/Library/Fonts/STIXGeneral.otf
p812
sg20
g21
sbag1
(g8
g3
NtRp813
(dp814
g11
g40
sg13
VCourier New
p815
sg15
I400
sg16
g12
sg17
g12
sg18
V/Library/Fonts/Courier New Italic.ttf
p816
sg20
g21
sbag1
(g8
g3
NtRp817
(dp818
g11
g12
sg13
VArial Black
p819
sg15
I900
sg16
g12
sg17
g12
sg18
V/Library/Fonts/Arial Black.ttf
p820
sg20
g21
sbag1
(g8
g3
NtRp821
(dp822
g11
g12
sg13
VSerto Mardin
p823
sg15
I400
sg16
g12
sg17
g12
sg18
V/usr/X11/lib/X11/fonts/OTF/SyrCOMMardin.otf
p824
sg20
g21
sbag1
(g8
g3
NtRp825
(dp826
g11
g40
sg13
VSTIXGeneral
p827
sg15
I400
sg16
g12
sg17
g12
sg18
V/Library/Fonts/STIXGeneralItalic.otf
p828
sg20
g21
sbag1
(g8
g3
NtRp829
(dp830
g11
g12
sg13
VSilom
p831
sg15
I400
sg16
g12
sg17
g12
sg18
V/Library/Fonts/Silom.ttf
p832
sg20
g21
sbag1
(g8
g3
NtRp833
(dp834
g11
g85
sg13
VMshtakan
p835
sg15
I700
sg16
g12
sg17
g12
sg18
V/Library/Fonts/MshtakanBoldOblique.ttf
p836
sg20
g21
sbag1
(g8
g3
NtRp837
(dp838
g11
g12
sg13
VYuppy TC
p839
sg15
I400
sg16
g12
sg17
g12
sg18
V/Library/Fonts/YuppyTC-Regular.otf
p840
sg20
g21
sbag1
(g8
g3
NtRp841
(dp842
g11
g12
sg13
VHiragino Kaku Gothic ProN
p843
sg15
I400
sg16
g12
sg17
g12
sg18
V/System/Library/Fonts/\u30d2\u30e9\u30ad\u3099\u30ce\u89d2\u30b3\u3099 ProN W3.otf
p844
sg20
g21
sbag1
(g8
g3
NtRp845
(dp846
g11
g12
sg13
VSTIXSizeFourSym
p847
sg15
I400
sg16
g12
sg17
g12
sg18
V/Library/Fonts/STIXSizFourSymReg.otf
p848
sg20
g21
sbag1
(g8
g3
NtRp849
(dp850
g11
g12
sg13
VApple Chancery
p851
sg15
I400
sg16
g12
sg17
g12
sg18
V/Library/Fonts/Apple Chancery.ttf
p852
sg20
g21
sbag1
(g8
g3
NtRp853
(dp854
g11
g12
sg13
VWingdings 3
p855
sg15
I400
sg16
g12
sg17
g12
sg18
V/Library/Fonts/Wingdings 3.ttf
p856
sg20
g21
sbag1
(g8
g3
NtRp857
(dp858
g11
g40
sg13
VSTIXGeneral
p859
sg15
I700
sg16
g12
sg17
g12
sg18
V/Library/Fonts/STIXGeneralBolIta.otf
p860
sg20
g21
sbag1
(g8
g3
NtRp861
(dp862
g11
g12
sg13
VSTIXIntegralsUpSm
p863
sg15
I700
sg16
g12
sg17
g12
sg18
V/Library/Fonts/STIXIntUpSmBol.otf
p864
sg20
g21
sbag1
(g8
g3
NtRp865
(dp866
g11
g12
sg13
VLao Sangam MN
p867
sg15
I400
sg16
g12
sg17
g12
sg18
V/Library/Fonts/Lao Sangam MN.ttf
p868
sg20
g21
sbag1
(g8
g3
NtRp869
(dp870
g11
g12
sg13
VTrattatello
p871
sg15
I400
sg16
g12
sg17
g12
sg18
V/Library/Fonts/Trattatello.ttf
p872
sg20
g21
sbag1
(g8
g3
NtRp873
(dp874
g11
g12
sg13
VSTIXSizeOneSym
p875
sg15
I700
sg16
g12
sg17
g12
sg18
V/Library/Fonts/STIXSizOneSymBol.otf
p876
sg20
g21
sbag1
(g8
g3
NtRp877
(dp878
g11
g12
sg13
VComic Sans MS
p879
sg15
I400
sg16
g12
sg17
g12
sg18
V/Library/Fonts/Comic Sans MS.ttf
p880
sg20
g21
sbag1
(g8
g3
NtRp881
(dp882
g11
g12
sg13
VSTIXSizeTwoSym
p883
sg15
I400
sg16
g12
sg17
g12
sg18
V/Library/Fonts/STIXSizTwoSymReg.otf
p884
sg20
g21
sbag1
(g8
g3
NtRp885
(dp886
g11
g12
sg13
VEstrangelo Nisibin Outline
p887
sg15
I400
sg16
g12
sg17
g12
sg18
V/usr/X11/lib/X11/fonts/OTF/SyrCOMNisibinOutline.otf
p888
sg20
g21
sbag1
(g8
g3
NtRp889
(dp890
g11
g12
sg13
VBodoni Ornaments
p891
sg15
I400
sg16
g12
sg17
g12
sg18
V/Library/Fonts/Bodoni Ornaments.ttf
p892
sg20
g21
sbag1
(g8
g3
NtRp893
(dp894
g11
g12
sg13
VWeibei SC
p895
sg15
I700
sg16
g12
sg17
g12
sg18
V/Library/Fonts/WeibeiSC-Bold.otf
p896
sg20
g21
sbag1
(g8
g3
NtRp897
(dp898
g11
g12
sg13
VSTIXSizeFourSym
p899
sg15
I700
sg16
g12
sg17
g12
sg18
V/Library/Fonts/STIXSizFourSymBol.otf
p900
sg20
g21
sbag1
(g8
g3
NtRp901
(dp902
g11
g12
sg13
VArial
p903
sg15
I700
sg16
g12
sg17
g12
sg18
V/Library/Fonts/Arial Bold.ttf
p904
sg20
g21
sbag1
(g8
g3
NtRp905
(dp906
g11
g12
sg13
VGeorgia
p907
sg15
I700
sg16
g12
sg17
g12
sg18
V/Library/Fonts/Georgia Bold.ttf
p908
sg20
g21
sbag1
(g8
g3
NtRp909
(dp910
g11
g12
sg13
VSTIXIntegralsD
p911
sg15
I400
sg16
g12
sg17
g12
sg18
V/Library/Fonts/STIXIntDReg.otf
p912
sg20
g21
sbag1
(g8
g3
NtRp913
(dp914
g11
g12
sg13
VGungSeo
p915
sg15
I400
sg16
g12
sg17
g12
sg18
V/Library/Fonts/Gungseouche.ttf
p916
sg20
g21
sbag1
(g8
g3
NtRp917
(dp918
g11
g40
sg13
VSerto Jerusalem
p919
sg15
I400
sg16
g12
sg17
g12
sg18
V/usr/X11/lib/X11/fonts/OTF/SyrCOMJerusalemItalic.otf
p920
sg20
g21
sbag1
(g8
g3
NtRp921
(dp922
g11
g12
sg13
VSTIXSizeTwoSym
p923
sg15
I700
sg16
g12
sg17
g12
sg18
V/Library/Fonts/STIXSizTwoSymBol.otf
p924
sg20
g21
sbag1
(g8
g3
NtRp925
(dp926
g11
g12
sg13
VWingdings
p927
sg15
I400
sg16
g12
sg17
g12
sg18
V/Library/Fonts/Wingdings.ttf
p928
sg20
g21
sbag1
(g8
g3
NtRp929
(dp930
g11
g12
sg13
VHiragino Kaku Gothic StdN
p931
sg15
I700
sg16
g12
sg17
g12
sg18
V/Library/Fonts/\u30d2\u30e9\u30ad\u3099\u30ce\u89d2\u30b3\u3099 StdN W8.otf
p932
sg20
g21
sbag1
(g8
g3
NtRp933
(dp934
g11
g12
sg13
VImpact
p935
sg15
I400
sg16
g12
sg17
g12
sg18
V/Library/Fonts/Impact.ttf
p936
sg20
g21
sbag1
(g8
g3
NtRp937
(dp938
g11
g12
sg13
VTahoma
p939
sg15
I700
sg16
g12
sg17
g12
sg18
V/Library/Fonts/Tahoma Bold.ttf
p940
sg20
g21
sbag1
(g8
g3
NtRp941
(dp942
g11
g12
sg13
VSTIXNonUnicode
p943
sg15
I700
sg16
g12
sg17
g12
sg18
V/Library/Fonts/STIXNonUniBol.otf
p944
sg20
g21
sbag1
(g8
g3
NtRp945
(dp946
g11
g40
sg13
VGeorgia
p947
sg15
I700
sg16
g12
sg17
g12
sg18
V/Library/Fonts/Georgia Bold Italic.ttf
p948
sg20
g21
sbag1
(g8
g3
NtRp949
(dp950
g11
g12
sg13
VSTIXIntegralsUpD
p951
sg15
I400
sg16
g12
sg17
g12
sg18
V/Library/Fonts/STIXIntUpDReg.otf
p952
sg20
g21
sbag1
(g8
g3
NtRp953
(dp954
g11
g12
sg13
VSathu
p955
sg15
I400
sg16
g12
sg17
g12
sg18
V/Library/Fonts/Sathu.ttf
p956
sg20
g21
sbag1
(g8
g3
NtRp957
(dp958
g11
g12
sg13
VGujarati MT
p959
sg15
I400
sg16
g12
sg17
g12
sg18
V/Library/Fonts/GujaratiMT.ttf
p960
sg20
g21
sbag1
(g8
g3
NtRp961
(dp962
g11
g12
sg13
VApple SD Gothic Neo
p963
sg15
I500
sg16
g12
sg17
g12
sg18
V/Library/Fonts/AppleSDGothicNeo-Medium.otf
p964
sg20
g21
sbasS'defaultFamily'
p965
(dp966
Vafm
p967
VHelvetica
p968
sVttf
p969
VBitstream Vera Sans
p970
ssS'ttffiles'
p971
(lp972
g19
ag25
ag29
ag33
ag37
ag42
ag46
ag50
ag54
ag58
ag62
ag66
ag70
ag74
ag78
ag82
ag87
ag91
ag95
ag99
ag103
ag107
ag111
ag115
ag119
ag123
ag127
ag131
ag135
ag139
ag143
ag147
ag151
ag155
ag159
aV/usr/X11R6/lib/X11/fonts/TTF/VeraBd.ttf
p973
ag163
ag167
aV/usr/X11R6/lib/X11/fonts/TTF/VeraBI.ttf
p974
ag171
ag175
ag179
ag183
ag187
ag191
aV/usr/X11/lib/X11/fonts/TTF/VeraSe.ttf
p975
ag195
ag200
ag204
ag208
ag212
ag216
ag220
ag224
ag228
ag232
ag236
ag240
ag244
ag248
aV/Library/Fonts/NISC18030.ttf
p976
ag252
ag256
ag260
ag264
aV/usr/X11/lib/X11/fonts/TTF/VeraBd.ttf
p977
ag268
ag272
ag276
ag280
ag284
aV/usr/X11R6/lib/X11/fonts/TTF/Vera.ttf
p978
aV/usr/X11R6/lib/X11/fonts/TTF/VeraMoIt.ttf
p979
ag288
aV/usr/X11R6/lib/X11/fonts/TTF/VeraMono.ttf
p980
ag292
ag296
ag300
ag304
ag308
ag312
ag316
ag320
ag324
ag328
ag332
ag336
ag340
ag344
ag348
ag352
ag356
ag360
ag364
ag368
ag372
ag376
ag380
ag384
ag388
ag392
ag396
aV/usr/X11R6/lib/X11/fonts/TTF/VeraSe.ttf
p981
ag400
ag404
ag408
aV/usr/X11/lib/X11/fonts/TTF/VeraIt.ttf
p982
ag412
ag416
ag420
ag424
ag428
ag432
ag436
ag440
ag444
ag448
ag452
ag456
aV/usr/X11/lib/X11/fonts/TTF/VeraMono.ttf
p983
ag460
ag464
ag468
ag472
ag476
ag480
ag484
aV/usr/X11R6/lib/X11/fonts/TTF/luxisbi.ttf
p984
ag488
ag492
ag496
ag500
ag504
ag508
aV/System/Library/Fonts/Apple Color Emoji.ttf
p985
aV/usr/X11/lib/X11/fonts/TTF/luxirbi.ttf
p986
ag512
ag516
ag520
ag524
ag528
aV/usr/X11/lib/X11/fonts/TTF/VeraMoBI.ttf
p987
ag532
ag536
ag540
ag544
ag548
ag552
ag556
ag560
ag564
ag568
ag572
aV/usr/X11/lib/X11/fonts/TTF/luxirri.ttf
p988
ag576
ag580
ag584
ag588
ag592
ag596
ag600
ag604
ag608
ag612
ag616
ag620
ag624
ag628
aV/usr/X11R6/lib/X11/fonts/TTF/VeraIt.ttf
p989
ag632
ag636
ag640
ag644
ag648
ag652
ag656
ag660
ag664
ag668
aV/usr/X11/lib/X11/fonts/TTF/luxirb.ttf
p990
ag672
aV/usr/X11/lib/X11/fonts/TTF/VeraMoIt.ttf
p991
ag676
ag680
ag684
ag688
ag692
ag696
aV/usr/X11/lib/X11/fonts/TTF/VeraBI.ttf
p992
ag700
ag704
ag708
ag712
ag716
ag720
ag724
ag728
ag732
ag736
aV/usr/X11R6/lib/X11/fonts/TTF/luxisr.ttf
p993
ag740
aV/usr/X11/lib/X11/fonts/TTF/VeraSeBd.ttf
p994
ag744
ag748
ag752
ag756
ag760
ag764
ag768
aV/usr/X11R6/lib/X11/fonts/TTF/VeraSeBd.ttf
p995
ag772
ag776
ag780
ag784
ag788
ag792
ag796
aV/usr/X11/lib/X11/fonts/TTF/luximb.ttf
p996
ag800
ag804
ag808
ag812
ag816
ag820
aV/usr/X11/lib/X11/fonts/TTF/luximbi.ttf
p997
aV/usr/X11/lib/X11/fonts/TTF/luxirr.ttf
p998
ag824
ag828
ag832
ag836
aV/usr/X11R6/lib/X11/fonts/TTF/luxisri.ttf
p999
ag840
ag844
ag848
ag852
aV/usr/X11/lib/X11/fonts/TTF/luximr.ttf
p1000
aV/usr/X11/lib/X11/fonts/TTF/Vera.ttf
p1001
ag856
ag860
ag864
ag868
aV/usr/X11R6/lib/X11/fonts/TTF/GohaTibebZemen.ttf
p1002
ag872
aV/usr/X11R6/lib/X11/fonts/TTF/luxisb.ttf
p1003
ag876
ag880
ag884
ag888
ag892
ag896
ag900
aV/usr/X11R6/lib/X11/fonts/TTF/VeraMoBd.ttf
p1004
ag904
ag908
ag912
ag916
ag920
ag924
ag928
ag932
ag936
aV/usr/X11/lib/X11/fonts/TTF/VeraMoBd.ttf
p1005
ag940
ag944
ag948
ag952
ag956
aV/usr/X11R6/lib/X11/fonts/TTF/luximri.ttf
p1006
ag960
aV/usr/X11R6/lib/X11/fonts/TTF/VeraMoBI.ttf
p1007
ag964
asS'_FontManager__default_weight'
p1008
Vnormal
p1009
sS'_version'
p1010
I101
sS'default_size'
p1011
NsS'defaultFont'
p1012
(dp1013
g967
V/Users/moritzberthold/anaconda2/lib/python2.7/site-packages/matplotlib/mpl-data/fonts/afm/pbkdi8a.afm
p1014
sg969
g135
ssS'afmfiles'
p1015
(lp1016
g1014
aV/Users/moritzberthold/anaconda2/lib/python2.7/site-packages/matplotlib/mpl-data/fonts/afm/putr8a.afm
p1017
aV/Users/moritzberthold/anaconda2/lib/python2.7/site-packages/matplotlib/mpl-data/fonts/afm/pplbi8a.afm
p1018
aV/Users/moritzberthold/anaconda2/lib/python2.7/site-packages/matplotlib/mpl-data/fonts/afm/psyr.afm
p1019
aV/Users/moritzberthold/anaconda2/lib/python2.7/site-packages/matplotlib/mpl-data/fonts/pdfcorefonts/Courier-Oblique.afm
p1020
aV/Users/moritzberthold/anaconda2/lib/python2.7/site-packages/matplotlib/mpl-data/fonts/afm/pzcmi8a.afm
p1021
aV/Users/moritzberthold/anaconda2/lib/python2.7/site-packages/matplotlib/mpl-data/fonts/afm/putri8a.afm
p1022
aV/Users/moritzberthold/anaconda2/lib/python2.7/site-packages/matplotlib/mpl-data/fonts/pdfcorefonts/Times-Italic.afm
p1023
aV/Users/moritzberthold/anaconda2/lib/python2.7/site-packages/matplotlib/mpl-data/fonts/afm/pncbi8a.afm
p1024
aV/Users/moritzberthold/anaconda2/lib/python2.7/site-packages/matplotlib/mpl-data/fonts/pdfcorefonts/Symbol.afm
p1025
aV/Users/moritzberthold/anaconda2/lib/python2.7/site-packages/matplotlib/mpl-data/fonts/afm/pzdr.afm
p1026
aV/Users/moritzberthold/anaconda2/lib/python2.7/site-packages/matplotlib/mpl-data/fonts/afm/pplb8a.afm
p1027
aV/Users/moritzberthold/anaconda2/lib/python2.7/site-packages/matplotlib/mpl-data/fonts/afm/pncr8a.afm
p1028
aV/Users/moritzberthold/anaconda2/lib/python2.7/site-packages/matplotlib/mpl-data/fonts/pdfcorefonts/Helvetica.afm
p1029
aV/Users/moritzberthold/anaconda2/lib/python2.7/site-packages/matplotlib/mpl-data/fonts/afm/pcrb8a.afm
p1030
aV/Users/moritzberthold/anaconda2/lib/python2.7/site-packages/matplotlib/mpl-data/fonts/pdfcorefonts/ZapfDingbats.afm
p1031
aV/Users/moritzberthold/anaconda2/lib/python2.7/site-packages/matplotlib/mpl-data/fonts/afm/phvro8an.afm
p1032
aV/Users/moritzberthold/anaconda2/lib/python2.7/site-packages/matplotlib/mpl-data/fonts/afm/pplri8a.afm
p1033
aV/Users/moritzberthold/anaconda2/lib/python2.7/site-packages/matplotlib/mpl-data/fonts/afm/cmtt10.afm
p1034
aV/Users/moritzberthold/anaconda2/lib/python2.7/site-packages/matplotlib/mpl-data/fonts/afm/cmmi10.afm
p1035
aV/Users/moritzberthold/anaconda2/lib/python2.7/site-packages/matplotlib/mpl-data/fonts/afm/phvl8a.afm
p1036
aV/Users/moritzberthold/anaconda2/lib/python2.7/site-packages/matplotlib/mpl-data/fonts/afm/phvr8an.afm
p1037
aV/Users/moritzberthold/anaconda2/lib/python2.7/site-packages/matplotlib/mpl-data/fonts/afm/putb8a.afm
p1038
aV/Users/moritzberthold/anaconda2/lib/python2.7/site-packages/matplotlib/mpl-data/fonts/pdfcorefonts/Times-Bold.afm
p1039
aV/Users/moritzberthold/anaconda2/lib/python2.7/site-packages/matplotlib/mpl-data/fonts/afm/phvbo8a.afm
p1040
aV/Users/moritzberthold/anaconda2/lib/python2.7/site-packages/matplotlib/mpl-data/fonts/afm/ptmr8a.afm
p1041
aV/Users/moritzberthold/anaconda2/lib/python2.7/site-packages/matplotlib/mpl-data/fonts/afm/ptmbi8a.afm
p1042
aV/Users/moritzberthold/anaconda2/lib/python2.7/site-packages/matplotlib/mpl-data/fonts/pdfcorefonts/Courier.afm
p1043
aV/Users/moritzberthold/anaconda2/lib/python2.7/site-packages/matplotlib/mpl-data/fonts/afm/pcrbo8a.afm
p1044
aV/Users/moritzberthold/anaconda2/lib/python2.7/site-packages/matplotlib/mpl-data/fonts/afm/ptmri8a.afm
p1045
aV/Users/moritzberthold/anaconda2/lib/python2.7/site-packages/matplotlib/mpl-data/fonts/afm/pbkd8a.afm
p1046
aV/Users/moritzberthold/anaconda2/lib/python2.7/site-packages/matplotlib/mpl-data/fonts/afm/pplr8a.afm
p1047
aV/Users/moritzberthold/anaconda2/lib/python2.7/site-packages/matplotlib/mpl-data/fonts/afm/phvb8an.afm
p1048
aV/Users/moritzberthold/anaconda2/lib/python2.7/site-packages/matplotlib/mpl-data/fonts/afm/pncb8a.afm
p1049
aV/Users/moritzberthold/anaconda2/lib/python2.7/site-packages/matplotlib/mpl-data/fonts/afm/phvr8a.afm
p1050
aV/Users/moritzberthold/anaconda2/lib/python2.7/site-packages/matplotlib/mpl-data/fonts/afm/pncri8a.afm
p1051
aV/Users/moritzberthold/anaconda2/lib/python2.7/site-packages/matplotlib/mpl-data/fonts/afm/phvbo8an.afm
p1052
aV/Users/moritzberthold/anaconda2/lib/python2.7/site-packages/matplotlib/mpl-data/fonts/afm/pagdo8a.afm
p1053
aV/Users/moritzberthold/anaconda2/lib/python2.7/site-packages/matplotlib/mpl-data/fonts/afm/cmex10.afm
p1054
aV/Users/moritzberthold/anaconda2/lib/python2.7/site-packages/matplotlib/mpl-data/fonts/afm/pagd8a.afm
p1055
aV/Users/moritzberthold/anaconda2/lib/python2.7/site-packages/matplotlib/mpl-data/fonts/afm/pcrr8a.afm
p1056
aV/Users/moritzberthold/anaconda2/lib/python2.7/site-packages/matplotlib/mpl-data/fonts/pdfcorefonts/Courier-BoldOblique.afm
p1057
aV/Users/moritzberthold/anaconda2/lib/python2.7/site-packages/matplotlib/mpl-data/fonts/afm/pagko8a.afm
p1058
aV/Users/moritzberthold/anaconda2/lib/python2.7/site-packages/matplotlib/mpl-data/fonts/afm/putbi8a.afm
p1059
aV/Users/moritzberthold/anaconda2/lib/python2.7/site-packages/matplotlib/mpl-data/fonts/pdfcorefonts/Helvetica-BoldOblique.afm
p1060
aV/Users/moritzberthold/anaconda2/lib/python2.7/site-packages/matplotlib/mpl-data/fonts/afm/cmr10.afm
p1061
aV/Users/moritzberthold/anaconda2/lib/python2.7/site-packages/matplotlib/mpl-data/fonts/afm/phvro8a.afm
p1062
aV/Users/moritzberthold/anaconda2/lib/python2.7/site-packages/matplotlib/mpl-data/fonts/afm/ptmb8a.afm
p1063
aV/Users/moritzberthold/anaconda2/lib/python2.7/site-packages/matplotlib/mpl-data/fonts/afm/pbkl8a.afm
p1064
aV/Users/moritzberthold/anaconda2/lib/python2.7/site-packages/matplotlib/mpl-data/fonts/afm/pcrro8a.afm
p1065
aV/Users/moritzberthold/anaconda2/lib/python2.7/site-packages/matplotlib/mpl-data/fonts/pdfcorefonts/Helvetica-Bold.afm
p1066
aV/Users/moritzberthold/anaconda2/lib/python2.7/site-packages/matplotlib/mpl-data/fonts/afm/pbkli8a.afm
p1067
aV/Users/moritzberthold/anaconda2/lib/python2.7/site-packages/matplotlib/mpl-data/fonts/pdfcorefonts/Helvetica-Oblique.afm
p1068
aV/Users/moritzberthold/anaconda2/lib/python2.7/site-packages/matplotlib/mpl-data/fonts/pdfcorefonts/Times-Roman.afm
p1069
aV/Users/moritzberthold/anaconda2/lib/python2.7/site-packages/matplotlib/mpl-data/fonts/afm/phvlo8a.afm
p1070
aV/Users/moritzberthold/anaconda2/lib/python2.7/site-packages/matplotlib/mpl-data/fonts/afm/pagk8a.afm
p1071
aV/Users/moritzberthold/anaconda2/lib/python2.7/site-packages/matplotlib/mpl-data/fonts/pdfcorefonts/Times-BoldItalic.afm
p1072
aV/Users/moritzberthold/anaconda2/lib/python2.7/site-packages/matplotlib/mpl-data/fonts/afm/phvb8a.afm
p1073
aV/Users/moritzberthold/anaconda2/lib/python2.7/site-packages/matplotlib/mpl-data/fonts/afm/cmsy10.afm
p1074
aV/Users/moritzberthold/anaconda2/lib/python2.7/site-packages/matplotlib/mpl-data/fonts/pdfcorefonts/Courier-Bold.afm
p1075
aV/usr/X11/lib/X11/fonts/Type1/UTB_____.afm
p1076
aV/usr/X11/lib/X11/fonts/Type1/c0583bt_.afm
p1077
aV/usr/X11/lib/X11/fonts/Type1/l049036t.afm
p1078
aV/usr/X11/lib/X11/fonts/Type1/c0649bt_.afm
p1079
aV/usr/X11/lib/X11/fonts/Type1/UTRG____.afm
p1080
aV/usr/X11/lib/X11/fonts/Type1/c0582bt_.afm
p1081
aV/usr/X11/lib/X11/fonts/Type1/c0648bt_.afm
p1082
aV/usr/X11/lib/X11/fonts/Type1/c0633bt_.afm
p1083
aV/usr/X11/lib/X11/fonts/Type1/l048013t.afm
p1084
aV/usr/X11/lib/X11/fonts/Type1/courb.afm
p1085
aV/usr/X11/lib/X11/fonts/Type1/c0419bt_.afm
p1086
aV/usr/X11/lib/X11/fonts/Type1/UTI_____.afm
p1087
aV/usr/X11/lib/X11/fonts/Type1/l049016t.afm
p1088
aV/usr/X11/lib/X11/fonts/Type1/l048033t.afm
p1089
aV/usr/X11/lib/X11/fonts/Type1/l048016t.afm
p1090
aV/usr/X11/lib/X11/fonts/Type1/l048036t.afm
p1091
aV/usr/X11/lib/X11/fonts/Type1/courbi.afm
p1092
aV/usr/X11/lib/X11/fonts/Type1/c0632bt_.afm
p1093
aV/usr/X11/lib/X11/fonts/Type1/l049013t.afm
p1094
aV/usr/X11/lib/X11/fonts/Type1/c0611bt_.afm
p1095
aV/usr/X11/lib/X11/fonts/Type1/l047036t.afm
p1096
aV/usr/X11/lib/X11/fonts/Type1/l047016t.afm
p1097
aV/usr/X11/lib/X11/fonts/Type1/l047033t.afm
p1098
aV/usr/X11/lib/X11/fonts/Type1/l047013t.afm
p1099
aV/usr/X11/lib/X11/fonts/Type1/l049033t.afm
p1100
aV/usr/X11/lib/X11/fonts/Type1/UTBI____.afm
p1101
aV/usr/X11/lib/X11/fonts/Type1/cour.afm
p1102
aV/usr/X11/lib/X11/fonts/Type1/couri.afm
p1103
asS'afmlist'
p1104
(lp1105
g1
(g8
g3
NtRp1106
(dp1107
g11
Vitalic
p1108
sg13
S'ITC Bookman'
p1109
sg15
I600
sg16
Vnormal
p1110
sg17
g1110
sg18
g1014
sg20
Vscalable
p1111
sbag1
(g8
g3
NtRp1112
(dp1113
g11
g1110
sg13
S'Utopia'
p1114
sg15
I400
sg16
g1110
sg17
g1110
sg18
g1017
sg20
g1111
sbag1
(g8
g3
NtRp1115
(dp1116
g11
g1108
sg13
S'Palatino'
p1117
sg15
I700
sg16
g1110
sg17
g1110
sg18
g1018
sg20
g1111
sbag1
(g8
g3
NtRp1118
(dp1119
g11
g1110
sg13
S'Symbol'
p1120
sg15
I500
sg16
g1110
sg17
g1110
sg18
g1019
sg20
g1111
sbag1
(g8
g3
NtRp1121
(dp1122
g11
g1108
sg13
S'Courier'
p1123
sg15
I500
sg16
g1110
sg17
g1110
sg18
g1020
sg20
g1111
sbag1
(g8
g3
NtRp1124
(dp1125
g11
g1108
sg13
S'ITC Zapf Chancery'
p1126
sg15
I500
sg16
g1110
sg17
g1110
sg18
g1021
sg20
g1111
sbag1
(g8
g3
NtRp1127
(dp1128
g11
g1108
sg13
S'Utopia'
p1129
sg15
I400
sg16
g1110
sg17
g1110
sg18
g1022
sg20
g1111
sbag1
(g8
g3
NtRp1130
(dp1131
g11
g1108
sg13
S'Times'
p1132
sg15
I500
sg16
g1110
sg17
g1110
sg18
g1023
sg20
g1111
sbag1
(g8
g3
NtRp1133
(dp1134
g11
g1108
sg13
S'New Century Schoolbook'
p1135
sg15
I700
sg16
g1110
sg17
g1110
sg18
g1024
sg20
g1111
sbag1
(g8
g3
NtRp1136
(dp1137
g11
g1110
sg13
S'Symbol'
p1138
sg15
I500
sg16
g1110
sg17
g1110
sg18
g1025
sg20
g1111
sbag1
(g8
g3
NtRp1139
(dp1140
g11
g1110
sg13
S'ITC Zapf Dingbats'
p1141
sg15
I500
sg16
g1110
sg17
g1110
sg18
g1026
sg20
g1111
sbag1
(g8
g3
NtRp1142
(dp1143
g11
g1110
sg13
S'Palatino'
p1144
sg15
I700
sg16
g1110
sg17
g1110
sg18
g1027
sg20
g1111
sbag1
(g8
g3
NtRp1145
(dp1146
g11
g1110
sg13
S'New Century Schoolbook'
p1147
sg15
I500
sg16
g1110
sg17
g1110
sg18
g1028
sg20
g1111
sbag1
(g8
g3
NtRp1148
(dp1149
g11
g1110
sg13
S'Helvetica'
p1150
sg15
I500
sg16
g1110
sg17
g1110
sg18
g1029
sg20
g1111
sbag1
(g8
g3
NtRp1151
(dp1152
g11
g1110
sg13
S'Courier'
p1153
sg15
I700
sg16
g1110
sg17
g1110
sg18
g1030
sg20
g1111
sbag1
(g8
g3
NtRp1154
(dp1155
g11
g1110
sg13
S'ZapfDingbats'
p1156
sg15
I500
sg16
g1110
sg17
g1110
sg18
g1031
sg20
g1111
sbag1
(g8
g3
NtRp1157
(dp1158
g11
g1108
sg13
S'Helvetica'
p1159
sg15
I500
sg16
Vcondensed
p1160
sg17
g1110
sg18
g1032
sg20
g1111
sbag1
(g8
g3
NtRp1161
(dp1162
g11
g1108
sg13
S'Palatino'
p1163
sg15
I500
sg16
g1110
sg17
g1110
sg18
g1033
sg20
g1111
sbag1
(g8
g3
NtRp1164
(dp1165
g11
g1110
sg13
S'Computer Modern'
p1166
sg15
I500
sg16
g1110
sg17
g1110
sg18
g1034
sg20
g1111
sbag1
(g8
g3
NtRp1167
(dp1168
g11
g1108
sg13
S'Computer Modern'
p1169
sg15
I500
sg16
g1110
sg17
g1110
sg18
g1035
sg20
g1111
sbag1
(g8
g3
NtRp1170
(dp1171
g11
g1110
sg13
S'Helvetica'
p1172
sg15
I200
sg16
g1110
sg17
g1110
sg18
g1036
sg20
g1111
sbag1
(g8
g3
NtRp1173
(dp1174
g11
g1110
sg13
S'Helvetica'
p1175
sg15
I500
sg16
g1160
sg17
g1110
sg18
g1037
sg20
g1111
sbag1
(g8
g3
NtRp1176
(dp1177
g11
g1110
sg13
S'Utopia'
p1178
sg15
I700
sg16
g1110
sg17
g1110
sg18
g1038
sg20
g1111
sbag1
(g8
g3
NtRp1179
(dp1180
g11
g1110
sg13
S'Times'
p1181
sg15
I700
sg16
g1110
sg17
g1110
sg18
g1039
sg20
g1111
sbag1
(g8
g3
NtRp1182
(dp1183
g11
g1108
sg13
S'Helvetica'
p1184
sg15
I700
sg16
g1110
sg17
g1110
sg18
g1040
sg20
g1111
sbag1
(g8
g3
NtRp1185
(dp1186
g11
g1110
sg13
S'Times'
p1187
sg15
I500
sg16
g1110
sg17
g1110
sg18
g1041
sg20
g1111
sbag1
(g8
g3
NtRp1188
(dp1189
g11
g1108
sg13
S'Times'
p1190
sg15
I700
sg16
g1110
sg17
g1110
sg18
g1042
sg20
g1111
sbag1
(g8
g3
NtRp1191
(dp1192
g11
g1110
sg13
S'Courier'
p1193
sg15
I500
sg16
g1110
sg17
g1110
sg18
g1043
sg20
g1111
sbag1
(g8
g3
NtRp1194
(dp1195
g11
g1108
sg13
S'Courier'
p1196
sg15
I700
sg16
g1110
sg17
g1110
sg18
g1044
sg20
g1111
sbag1
(g8
g3
NtRp1197
(dp1198
g11
g1108
sg13
S'Times'
p1199
sg15
I500
sg16
g1110
sg17
g1110
sg18
g1045
sg20
g1111
sbag1
(g8
g3
NtRp1200
(dp1201
g11
g1110
sg13
S'ITC Bookman'
p1202
sg15
I600
sg16
g1110
sg17
g1110
sg18
g1046
sg20
g1111
sbag1
(g8
g3
NtRp1203
(dp1204
g11
g1110
sg13
S'Palatino'
p1205
sg15
I500
sg16
g1110
sg17
g1110
sg18
g1047
sg20
g1111
sbag1
(g8
g3
NtRp1206
(dp1207
g11
g1110
sg13
S'Helvetica'
p1208
sg15
I700
sg16
g1160
sg17
g1110
sg18
g1048
sg20
g1111
sbag1
(g8
g3
NtRp1209
(dp1210
g11
g1110
sg13
S'New Century Schoolbook'
p1211
sg15
I700
sg16
g1110
sg17
g1110
sg18
g1049
sg20
g1111
sbag1
(g8
g3
NtRp1212
(dp1213
g11
g1110
sg13
S'Helvetica'
p1214
sg15
I500
sg16
g1110
sg17
g1110
sg18
g1050
sg20
g1111
sbag1
(g8
g3
NtRp1215
(dp1216
g11
g1108
sg13
S'New Century Schoolbook'
p1217
sg15
I500
sg16
g1110
sg17
g1110
sg18
g1051
sg20
g1111
sbag1
(g8
g3
NtRp1218
(dp1219
g11
g1108
sg13
S'Helvetica'
p1220
sg15
I700
sg16
g1160
sg17
g1110
sg18
g1052
sg20
g1111
sbag1
(g8
g3
NtRp1221
(dp1222
g11
g1108
sg13
S'ITC Avant Garde Gothic'
p1223
sg15
I600
sg16
g1110
sg17
g1110
sg18
g1053
sg20
g1111
sbag1
(g8
g3
NtRp1224
(dp1225
g11
g1110
sg13
S'Computer Modern'
p1226
sg15
I500
sg16
g1110
sg17
g1110
sg18
g1054
sg20
g1111
sbag1
(g8
g3
NtRp1227
(dp1228
g11
g1110
sg13
S'ITC Avant Garde Gothic'
p1229
sg15
I600
sg16
g1110
sg17
g1110
sg18
g1055
sg20
g1111
sbag1
(g8
g3
NtRp1230
(dp1231
g11
g1110
sg13
S'Courier'
p1232
sg15
I500
sg16
g1110
sg17
g1110
sg18
g1056
sg20
g1111
sbag1
(g8
g3
NtRp1233
(dp1234
g11
g1108
sg13
S'Courier'
p1235
sg15
I700
sg16
g1110
sg17
g1110
sg18
g1057
sg20
g1111
sbag1
(g8
g3
NtRp1236
(dp1237
g11
g1108
sg13
S'ITC Avant Garde Gothic'
p1238
sg15
I400
sg16
g1110
sg17
g1110
sg18
g1058
sg20
g1111
sbag1
(g8
g3
NtRp1239
(dp1240
g11
g1108
sg13
S'Utopia'
p1241
sg15
I700
sg16
g1110
sg17
g1110
sg18
g1059
sg20
g1111
sbag1
(g8
g3
NtRp1242
(dp1243
g11
g1108
sg13
S'Helvetica'
p1244
sg15
I700
sg16
g1110
sg17
g1110
sg18
g1060
sg20
g1111
sbag1
(g8
g3
NtRp1245
(dp1246
g11
g1110
sg13
S'Computer Modern'
p1247
sg15
I500
sg16
g1110
sg17
g1110
sg18
g1061
sg20
g1111
sbag1
(g8
g3
NtRp1248
(dp1249
g11
g1108
sg13
S'Helvetica'
p1250
sg15
I500
sg16
g1110
sg17
g1110
sg18
g1062
sg20
g1111
sbag1
(g8
g3
NtRp1251
(dp1252
g11
g1110
sg13
S'Times'
p1253
sg15
I700
sg16
g1110
sg17
g1110
sg18
g1063
sg20
g1111
sbag1
(g8
g3
NtRp1254
(dp1255
g11
g1110
sg13
S'ITC Bookman'
p1256
sg15
I200
sg16
g1110
sg17
g1110
sg18
g1064
sg20
g1111
sbag1
(g8
g3
NtRp1257
(dp1258
g11
g1108
sg13
S'Courier'
p1259
sg15
I500
sg16
g1110
sg17
g1110
sg18
g1065
sg20
g1111
sbag1
(g8
g3
NtRp1260
(dp1261
g11
g1110
sg13
S'Helvetica'
p1262
sg15
I700
sg16
g1110
sg17
g1110
sg18
g1066
sg20
g1111
sbag1
(g8
g3
NtRp1263
(dp1264
g11
g1108
sg13
S'ITC Bookman'
p1265
sg15
I200
sg16
g1110
sg17
g1110
sg18
g1067
sg20
g1111
sbag1
(g8
g3
NtRp1266
(dp1267
g11
g1108
sg13
S'Helvetica'
p1268
sg15
I500
sg16
g1110
sg17
g1110
sg18
g1068
sg20
g1111
sbag1
(g8
g3
NtRp1269
(dp1270
g11
g1110
sg13
S'Times'
p1271
sg15
I500
sg16
g1110
sg17
g1110
sg18
g1069
sg20
g1111
sbag1
(g8
g3
NtRp1272
(dp1273
g11
g1108
sg13
S'Helvetica'
p1274
sg15
I200
sg16
g1110
sg17
g1110
sg18
g1070
sg20
g1111
sbag1
(g8
g3
NtRp1275
(dp1276
g11
g1110
sg13
S'ITC Avant Garde Gothic'
p1277
sg15
I400
sg16
g1110
sg17
g1110
sg18
g1071
sg20
g1111
sbag1
(g8
g3
NtRp1278
(dp1279
g11
g1108
sg13
S'Times'
p1280
sg15
I700
sg16
g1110
sg17
g1110
sg18
g1072
sg20
g1111
sbag1
(g8
g3
NtRp1281
(dp1282
g11
g1110
sg13
S'Helvetica'
p1283
sg15
I700
sg16
g1110
sg17
g1110
sg18
g1073
sg20
g1111
sbag1
(g8
g3
NtRp1284
(dp1285
g11
g1108
sg13
S'Computer Modern'
p1286
sg15
I500
sg16
g1110
sg17
g1110
sg18
g1074
sg20
g1111
sbag1
(g8
g3
NtRp1287
(dp1288
g11
g1110
sg13
S'Courier'
p1289
sg15
I700
sg16
g1110
sg17
g1110
sg18
g1075
sg20
g1111
sbag1
(g8
g3
NtRp1290
(dp1291
g11
g1110
sg13
S'Utopia'
p1292
sg15
I700
sg16
g1110
sg17
g1110
sg18
g1076
sg20
g1111
sbag1
(g8
g3
NtRp1293
(dp1294
g11
g1110
sg13
S'Courier 10 Pitch'
p1295
sg15
I700
sg16
g1110
sg17
g1110
sg18
g1077
sg20
g1111
sbag1
(g8
g3
NtRp1296
(dp1297
g11
g1108
sg13
S'Luxi Serif'
p1298
sg15
I700
sg16
g1110
sg17
g1110
sg18
g1078
sg20
g1111
sbag1
(g8
g3
NtRp1299
(dp1300
g11
g1108
sg13
S'Bitstream Charter'
p1301
sg15
I400
sg16
g1110
sg17
g1110
sg18
g1079
sg20
g1111
sbag1
(g8
g3
NtRp1302
(dp1303
g11
g1110
sg13
S'Utopia'
p1304
sg15
I400
sg16
g1110
sg17
g1110
sg18
g1080
sg20
g1111
sbag1
(g8
g3
NtRp1305
(dp1306
g11
g1108
sg13
S'Courier 10 Pitch'
p1307
sg15
I400
sg16
g1110
sg17
g1110
sg18
g1081
sg20
g1111
sbag1
(g8
g3
NtRp1308
(dp1309
g11
g1110
sg13
S'Bitstream Charter'
p1310
sg15
I400
sg16
g1110
sg17
g1110
sg18
g1082
sg20
g1111
sbag1
(g8
g3
NtRp1311
(dp1312
g11
g1108
sg13
S'Bitstream Charter'
p1313
sg15
I700
sg16
g1110
sg17
g1110
sg18
g1083
sg20
g1111
sbag1
(g8
g3
NtRp1314
(dp1315
g11
g1110
sg13
S'Luxi Sans'
p1316
sg15
I400
sg16
g1110
sg17
g1110
sg18
g1084
sg20
g1111
sbag1
(g8
g3
NtRp1317
(dp1318
g11
g1110
sg13
S'Courier'
p1319
sg15
I700
sg16
g1110
sg17
g1110
sg18
g1085
sg20
g1111
sbag1
(g8
g3
NtRp1320
(dp1321
g11
g1110
sg13
S'Courier 10 Pitch'
p1322
sg15
I400
sg16
g1110
sg17
g1110
sg18
g1086
sg20
g1111
sbag1
(g8
g3
NtRp1323
(dp1324
g11
g1108
sg13
S'Utopia'
p1325
sg15
I400
sg16
g1110
sg17
g1110
sg18
g1087
sg20
g1111
sbag1
(g8
g3
NtRp1326
(dp1327
g11
g1110
sg13
S'Luxi Serif'
p1328
sg15
I700
sg16
g1110
sg17
g1110
sg18
g1088
sg20
g1111
sbag1
(g8
g3
NtRp1329
(dp1330
g11
g1108
sg13
S'Luxi Sans'
p1331
sg15
I400
sg16
g1110
sg17
g1110
sg18
g1089
sg20
g1111
sbag1
(g8
g3
NtRp1332
(dp1333
g11
g1110
sg13
S'Luxi Sans'
p1334
sg15
I700
sg16
g1110
sg17
g1110
sg18
g1090
sg20
g1111
sbag1
(g8
g3
NtRp1335
(dp1336
g11
g1108
sg13
S'Luxi Sans'
p1337
sg15
I700
sg16
g1110
sg17
g1110
sg18
g1091
sg20
g1111
sbag1
(g8
g3
NtRp1338
(dp1339
g11
g1108
sg13
S'Courier'
p1340
sg15
I700
sg16
g1110
sg17
g1110
sg18
g1092
sg20
g1111
sbag1
(g8
g3
NtRp1341
(dp1342
g11
g1110
sg13
S'Bitstream Charter'
p1343
sg15
I700
sg16
g1110
sg17
g1110
sg18
g1093
sg20
g1111
sbag1
(g8
g3
NtRp1344
(dp1345
g11
g1110
sg13
S'Luxi Serif'
p1346
sg15
I400
sg16
g1110
sg17
g1110
sg18
g1094
sg20
g1111
sbag1
(g8
g3
NtRp1347
(dp1348
g11
g1108
sg13
S'Courier 10 Pitch'
p1349
sg15
I700
sg16
g1110
sg17
g1110
sg18
g1095
sg20
g1111
sbag1
(g8
g3
NtRp1350
(dp1351
g11
g1108
sg13
S'Luxi Mono'
p1352
sg15
I700
sg16
g1110
sg17
g1110
sg18
g1096
sg20
g1111
sbag1
(g8
g3
NtRp1353
(dp1354
g11
g1110
sg13
S'Luxi Mono'
p1355
sg15
I700
sg16
g1110
sg17
g1110
sg18
g1097
sg20
g1111
sbag1
(g8
g3
NtRp1356
(dp1357
g11
g1108
sg13
S'Luxi Mono'
p1358
sg15
I400
sg16
g1110
sg17
g1110
sg18
g1098
sg20
g1111
sbag1
(g8
g3
NtRp1359
(dp1360
g11
g1110
sg13
S'Luxi Mono'
p1361
sg15
I400
sg16
g1110
sg17
g1110
sg18
g1099
sg20
g1111
sbag1
(g8
g3
NtRp1362
(dp1363
g11
g1108
sg13
S'Luxi Serif'
p1364
sg15
I400
sg16
g1110
sg17
g1110
sg18
g1100
sg20
g1111
sbag1
(g8
g3
NtRp1365
(dp1366
g11
g1108
sg13
S'Utopia'
p1367
sg15
I700
sg16
g1110
sg17
g1110
sg18
g1101
sg20
g1111
sbag1
(g8
g3
NtRp1368
(dp1369
g11
g1110
sg13
S'Courier'
p1370
sg15
I400
sg16
g1110
sg17
g1110
sg18
g1102
sg20
g1111
sbag1
(g8
g3
NtRp1371
(dp1372
g11
g1108
sg13
S'Courier'
p1373
sg15
I400
sg16
g1110
sg17
g1110
sg18
g1103
sg20
g1111
sbasb.